             VMA              LMA     Size Align Out     In      Symbol
               0                0        0     1 KERNEL_LOAD_ADDR = 0x80200000
        80200000         80200000     1874  4096 .text
        80200000         80200000       48     1         D:\rust\bogokernel\target\riscv64gc-unknown-none-elf\debug\deps\kernel-6d55ed35400b9dc4.8bzhb9fu7en3rtrx7zpckaf8v.10m4h80.rcgu.o:(.text.entry)
        80200000         80200000        0     1                 .Lpcrel_hi0
        80200000         80200000        0     1                 $x
        80200000         80200000        0     1                 _start
        80200022         80200022        0     1                 .Lpcrel_hi1
        8020002a         8020002a        0     1                 .Lpcrel_hi2
        8020003e         8020003e        0     1                 .Lpcrel_hi3
        80200048         80200048       72     1         D:\rust\bogokernel\target\riscv64gc-unknown-none-elf\debug\deps\kernel-6d55ed35400b9dc4.8bzhb9fu7en3rtrx7zpckaf8v.10m4h80.rcgu.o:(.text.trap)
        80200048         80200048        0     1                 $x
        80200048         80200048        0     1                 __trap_entry
        802000ba         802000ba      2b0     2         D:\rust\bogokernel\target\riscv64gc-unknown-none-elf\debug\deps\kernel-6d55ed35400b9dc4.8bzhb9fu7en3rtrx7zpckaf8v.10m4h80.rcgu.o:(.text.rust_trap)
        802000ba         802000ba        0     1                 .L0 
        802000ba         802000ba        0     1                 .L0 
        802000ba         802000ba        0     1                 $x
        802000ba         802000ba        0     1                 .L0 
        802000ba         802000ba      2b0     1                 rust_trap
        802000c0         802000c0        0     1                 .L0 
        802000c4         802000c4        0     1                 .L0 
        802000c4         802000c4        0     1                 .L0 
        802000c8         802000c8        0     1                 .L0 
        802000ce         802000ce        0     1                 .L0 
        802000ce         802000ce        0     1                 .L0 
        802000d6         802000d6        0     1                 .Lpcrel_hi4
        802000e6         802000e6        0     1                 .L0 
        802000e6         802000e6        0     1                 .L0 
        802000e6         802000e6        0     1                 .L0 
        802000ec         802000ec        0     1                 .L0 
        802000f2         802000f2        0     1                 .L0 
        802000f4         802000f4        0     1                 .L0 
        802000fe         802000fe        0     1                 .L0 
        802000fe         802000fe        0     1                 .L0 
        80200104         80200104        0     1                 .Lpcrel_hi5
        80200104         80200104        0     1                 .L0 
        80200114         80200114        0     1                 .L0 
        80200114         80200114        0     1                 .L0 
        8020011a         8020011a        0     1                 .L0 
        80200120         80200120        0     1                 .L0 
        80200120         80200120        0     1                 .L0 
        80200126         80200126        0     1                 .L0 
        8020012c         8020012c        0     1                 .L0 
        8020012c         8020012c        0     1                 .L0 
        80200132         80200132        0     1                 .L0 
        80200138         80200138        0     1                 .L0 
        80200138         80200138        0     1                 .L0 
        8020013e         8020013e        0     1                 .L0 
        80200144         80200144        0     1                 .L0 
        80200144         80200144        0     1                 .L0 
        8020014a         8020014a        0     1                 .L0 
        80200150         80200150        0     1                 .L0 
        80200150         80200150        0     1                 .L0 
        80200156         80200156        0     1                 .L0 
        8020015c         8020015c        0     1                 .L0 
        8020015c         8020015c        0     1                 .L0 
        80200162         80200162        0     1                 .L0 
        80200168         80200168        0     1                 .L0 
        80200168         80200168        0     1                 .L0 
        8020016e         8020016e        0     1                 .L0 
        80200174         80200174        0     1                 .L0 
        80200174         80200174        0     1                 .L0 
        8020017a         8020017a        0     1                 .L0 
        80200180         80200180        0     1                 .L0 
        80200180         80200180        0     1                 .L0 
        80200186         80200186        0     1                 .L0 
        8020018c         8020018c        0     1                 .L0 
        8020018e         8020018e        0     1                 .L0 
        8020018e         8020018e        0     1                 .L0 
        80200196         80200196        0     1                 .L0 
        8020019c         8020019c        0     1                 .L0 
        8020019c         8020019c        0     1                 .L0 
        802001a0         802001a0        0     1                 .L0 
        802001a2         802001a2        0     1                 .L0 
        802001a6         802001a6        0     1                 .L0 
        802001a8         802001a8        0     1                 .Lpcrel_hi25
        802001b8         802001b8        0     1                 .L0 
        802001b8         802001b8        0     1                 .L0 
        802001ba         802001ba        0     1                 .L0 
        802001ba         802001ba        0     1                 .L0 
        802001c0         802001c0        0     1                 .Lpcrel_hi22
        802001c0         802001c0        0     1                 .L0 
        802001c4         802001c4        0     1                 .Lpcrel_hi23
        802001c4         802001c4        0     1                 .L0 
        802001c8         802001c8        0     1                 .L0 
        802001d2         802001d2        0     1                 .L0 
        802001de         802001de        0     1                 .L0 
        802001e0         802001e0        0     1                 .L0 
        802001e0         802001e0        0     1                 .L0 
        802001e2         802001e2        0     1                 .Lpcrel_hi24
        802001f0         802001f0        0     1                 .L0 
        802001f0         802001f0        0     1                 .L0 
        802001f2         802001f2        0     1                 .Lpcrel_hi19
        802001f2         802001f2        0     1                 .L0 
        802001f6         802001f6        0     1                 .Lpcrel_hi20
        802001f6         802001f6        0     1                 .L0 
        802001fc         802001fc        0     1                 .L0 
        80200206         80200206        0     1                 .L0 
        80200214         80200214        0     1                 .Lpcrel_hi21
        80200220         80200220        0     1                 .L0 
        8020022c         8020022c        0     1                 .L0 
        80200230         80200230        0     1                 .L0 
        80200230         80200230        0     1                 .L0 
        80200232         80200232        0     1                 .L0 
        80200234         80200234        0     1                 .L0 
        8020023a         8020023a        0     1                 .L0 
        8020023a         8020023a        0     1                 .L0 
        80200244         80200244        0     1                 .L0 
        80200244         80200244        0     1                 .L0 
        80200248         80200248        0     1                 .L0 
        80200248         80200248        0     1                 .L0 
        8020025a         8020025a        0     1                 .L0 
        8020025c         8020025c        0     1                 .L0 
        80200260         80200260        0     1                 .L0 
        80200264         80200264        0     1                 .L0 
        80200264         80200264        0     1                 .Lpcrel_hi6
        80200272         80200272        0     1                 .L0 
        80200276         80200276        0     1                 .Lpcrel_hi8
        80200276         80200276        0     1                 .L0 
        8020027e         8020027e        0     1                 .Lpcrel_hi9
        80200286         80200286        0     1                 .L0 
        80200292         80200292        0     1                 .L0 
        80200294         80200294        0     1                 .L0 
        80200294         80200294        0     1                 .L0 
        80200298         80200298        0     1                 .L0 
        8020029a         8020029a        0     1                 .Lpcrel_hi11
        8020029e         8020029e        0     1                 .Lpcrel_hi12
        8020029e         8020029e        0     1                 .L0 
        802002a6         802002a6        0     1                 .L0 
        802002b0         802002b0        0     1                 .L0 
        802002be         802002be        0     1                 .Lpcrel_hi13
        802002d2         802002d2        0     1                 .L0 
        802002e2         802002e2        0     1                 .Lpcrel_hi14
        802002e2         802002e2        0     1                 .L0 
        802002e8         802002e8        0     1                 .Lpcrel_hi15
        802002ec         802002ec        0     1                 .L0 
        802002ec         802002ec        0     1                 .Lpcrel_hi16
        802002f6         802002f6        0     1                 .L0 
        802002f8         802002f8        0     1                 .L0 
        80200300         80200300        0     1                 .L0 
        80200308         80200308        0     1                 .L0 
        8020030c         8020030c        0     1                 .L0 
        80200316         80200316        0     1                 .L0 
        80200318         80200318        0     1                 .L0 
        80200318         80200318        0     1                 .Lpcrel_hi17
        80200330         80200330        0     1                 .Lpcrel_hi18
        80200344         80200344        0     1                 .L0 
        80200344         80200344        0     1                 .L0 
        8020034a         8020034a        0     1                 .L0 
        8020034a         8020034a        0     1                 .Lpcrel_hi7
        8020034a         8020034a        0     1                 .L0 
        8020035a         8020035a        0     1                 .Lpcrel_hi10
        8020036a         8020036a        0     1                 .L0 
        8020036a         8020036a        0     1                 .L0 
        8020036a         8020036a       4a     2         D:\rust\bogokernel\target\riscv64gc-unknown-none-elf\debug\deps\kernel-6d55ed35400b9dc4.8bzhb9fu7en3rtrx7zpckaf8v.10m4h80.rcgu.o:(.text._ZN66_$LT$riscv..register..scause..Trap$u20$as$u20$core..fmt..Debug$GT$3fmt17h13b3f40e7f5061dcE)
        8020036a         8020036a       4a     1                 _$LT$riscv..register..scause..Trap$u20$as$u20$core..fmt..Debug$GT$::fmt::h13b3f40e7f5061dc
        8020036a         8020036a        0     1                 .L0 
        8020036a         8020036a        0     1                 .L0 
        8020036a         8020036a        0     1                 $x
        8020036a         8020036a        0     1                 .L0 
        80200370         80200370        0     1                 .L0 
        80200378         80200378        0     1                 .L0 
        8020037a         8020037a        0     1                 .Lpcrel_hi26
        8020037a         8020037a        0     1                 .L0 
        8020037a         8020037a        0     1                 .L0 
        8020037e         8020037e        0     1                 .Lpcrel_hi27
        8020038e         8020038e        0     1                 .L0 
        80200390         80200390        0     1                 .Lpcrel_hi28
        80200390         80200390        0     1                 .L0 
        80200394         80200394        0     1                 .Lpcrel_hi29
        802003b4         802003b4        0     1                 .L0 
        802003b4         802003b4       70     2         D:\rust\bogokernel\target\riscv64gc-unknown-none-elf\debug\deps\kernel-6d55ed35400b9dc4.8bzhb9fu7en3rtrx7zpckaf8v.10m4h80.rcgu.o:(.text.after_user)
        802003b4         802003b4        0     1                 .L0 
        802003b4         802003b4        0     1                 .L0 
        802003b4         802003b4        0     1                 $x
        802003b4         802003b4        0     1                 .L0 
        802003b4         802003b4       70     1                 after_user
        802003b6         802003b6        0     1                 .L0 
        802003be         802003be        0     1                 .Lpcrel_hi30
        802003ce         802003ce        0     1                 .L0 
        802003ce         802003ce        0     1                 .L0 
        802003d8         802003d8        0     1                 .L0 
        802003dc         802003dc        0     1                 .L0 
        802003dc         802003dc        0     1                 .L0 
        802003e0         802003e0        0     1                 .L0 
        802003e0         802003e0        0     1                 .L0 
        802003e4         802003e4        0     1                 .L0 
        802003e8         802003e8        0     1                 .L0 
        802003e8         802003e8        0     1                 .L0 
        802003ee         802003ee        0     1                 .L0 
        802003f0         802003f0        0     1                 .L0 
        802003f4         802003f4        0     1                 .L0 
        802003f4         802003f4        0     1                 .L0 
        802003f8         802003f8        0     1                 .L0 
        802003f8         802003f8        0     1                 .L0 
        802003fc         802003fc        0     1                 .L0 
        80200402         80200402        0     1                 .L0 
        80200402         80200402        0     1                 .L0 
        80200406         80200406        0     1                 .L0 
        8020040a         8020040a        0     1                 .L0 
        80200412         80200412        0     1                 .L0 
        80200412         80200412        0     1                 .L0 
        80200416         80200416        0     1                 .L0 
        8020041e         8020041e        0     1                 .L0 
        8020041e         8020041e        0     1                 .L0 
        80200422         80200422        0     1                 .L0 
        80200424         80200424        0     1                 .L0 
        80200424         80200424      11e     2         D:\rust\bogokernel\target\riscv64gc-unknown-none-elf\debug\deps\kernel-6d55ed35400b9dc4.8bzhb9fu7en3rtrx7zpckaf8v.10m4h80.rcgu.o:(.text._RNvCs4pED7du1fNF_7___rustc17rust_begin_unwind)
        80200424         80200424        0     1                 .L0 
        80200424         80200424        0     1                 .L0 
        80200424         80200424        0     1                 $x
        80200424         80200424        0     1                 .L0 
        80200424         80200424      11e     1                 __rustc::rust_begin_unwind
        80200436         80200436        0     1                 .L0 
        8020043c         8020043c        0     1                 .Lpcrel_hi31
        8020044c         8020044c        0     1                 .L0 
        8020044c         8020044c        0     1                 .L0 
        80200456         80200456        0     1                 .L0 
        8020045a         8020045a        0     1                 .L0 
        8020045a         8020045a        0     1                 .L0 
        8020045e         8020045e        0     1                 .L0 
        8020045e         8020045e        0     1                 .L0 
        80200462         80200462        0     1                 .L0 
        80200466         80200466        0     1                 .L0 
        80200466         80200466        0     1                 .L0 
        8020046c         8020046c        0     1                 .L0 
        8020046e         8020046e        0     1                 .L0 
        80200472         80200472        0     1                 .L0 
        80200472         80200472        0     1                 .L0 
        80200476         80200476        0     1                 .L0 
        80200476         80200476        0     1                 .L0 
        8020047a         8020047a        0     1                 .L0 
        80200480         80200480        0     1                 .L0 
        80200480         80200480        0     1                 .L0 
        80200484         80200484        0     1                 .L0 
        80200488         80200488        0     1                 .L0 
        80200490         80200490        0     1                 .L0 
        80200490         80200490        0     1                 .L0 
        80200494         80200494        0     1                 .L0 
        8020049c         8020049c        0     1                 .L0 
        8020049c         8020049c        0     1                 .L0 
        802004a2         802004a2        0     1                 .L0 
        802004a2         802004a2        0     1                 .Lpcrel_hi32
        802004a8         802004a8        0     1                 .Lpcrel_hi33
        802004ae         802004ae        0     1                 .L0 
        802004ae         802004ae        0     1                 .Lpcrel_hi34
        802004ba         802004ba        0     1                 .L0 
        802004c2         802004c2        0     1                 .L0 
        802004ce         802004ce        0     1                 .L0 
        802004d2         802004d2        0     1                 .L0 
        802004d4         802004d4        0     1                 .L0 
        802004d6         802004d6        0     1                 .L0 
        802004e2         802004e2        0     1                 .L0 
        802004ea         802004ea        0     1                 .L0 
        802004ec         802004ec        0     1                 .Lpcrel_hi35
        80200504         80200504        0     1                 .L0 
        80200508         80200508        0     1                 .Lpcrel_hi36
        8020050c         8020050c        0     1                 .Lpcrel_hi37
        8020050c         8020050c        0     1                 .L0 
        80200512         80200512        0     1                 .L0 
        8020051c         8020051c        0     1                 .L0 
        80200528         80200528        0     1                 .L0 
        8020052a         8020052a        0     1                 .L0 
        8020053c         8020053c        0     1                 .L0 
        80200540         80200540        0     1                 .L0 
        80200542         80200542        0     1                 .L0 
        80200542         80200542       36     2         D:\rust\bogokernel\target\riscv64gc-unknown-none-elf\debug\deps\kernel-6d55ed35400b9dc4.8bzhb9fu7en3rtrx7zpckaf8v.10m4h80.rcgu.o:(.text._ZN76_$LT$core..panic..panic_info..PanicMessage$u20$as$u20$core..fmt..Display$GT$3fmt17h1db35bdad7d9691fE)
        80200542         80200542       36     1                 _$LT$core..panic..panic_info..PanicMessage$u20$as$u20$core..fmt..Display$GT$::fmt::h1db35bdad7d9691f
        80200542         80200542        0     1                 .L0 
        80200542         80200542        0     1                 .L0 
        80200542         80200542        0     1                 $x
        80200542         80200542        0     1                 .L0 
        80200548         80200548        0     1                 .L0 
        8020054c         8020054c        0     1                 .L0 
        80200558         80200558        0     1                 .L0 
        80200572         80200572        0     1                 .L0 
        80200578         80200578        0     1                 .L0 
        80200578         80200578       44     2         D:\rust\bogokernel\target\riscv64gc-unknown-none-elf\debug\deps\kernel-6d55ed35400b9dc4.8bzhb9fu7en3rtrx7zpckaf8v.10m4h80.rcgu.o:(.text._ZN6kernel10enter_user17hb9eba63d0fd53f1bE)
        80200578         80200578       44     1                 kernel::enter_user::hb9eba63d0fd53f1b
        80200578         80200578        0     1                 .L0 
        80200578         80200578        0     1                 .L0 
        80200578         80200578        0     1                 .Lpcrel_hi38
        80200578         80200578        0     1                 $x
        80200578         80200578        0     1                 .L0 
        8020057c         8020057c        0     1                 .L0 
        8020057c         8020057c        0     1                 .Lpcrel_hi39
        80200580         80200580        0     1                 .L0 
        80200588         80200588        0     1                 .L0 
        80200588         80200588        0     1                 .L0 
        80200594         80200594        0     1                 .Lpcrel_hi40
        802005a4         802005a4        0     1                 .L0 
        802005a4         802005a4        0     1                 .L0 
        802005aa         802005aa        0     1                 .L0 
        802005b2         802005b2        0     1                 .L0 
        802005bc         802005bc        0     1                 .L0 
        802005bc         802005bc       40     2         D:\rust\bogokernel\target\riscv64gc-unknown-none-elf\debug\deps\kernel-6d55ed35400b9dc4.8bzhb9fu7en3rtrx7zpckaf8v.10m4h80.rcgu.o:(.text.rust_start)
        802005bc         802005bc        0     1                 .L0 
        802005bc         802005bc        0     1                 .L0 
        802005bc         802005bc        0     1                 $x
        802005bc         802005bc        0     1                 .L0 
        802005bc         802005bc       40     1                 rust_start
        802005c0         802005c0        0     1                 .Lpcrel_hi41
        802005c0         802005c0        0     1                 .L0 
        802005fc         802005fc        0     1                 .L0 
        802005fc         802005fc       1c     2         D:\rust\bogokernel\target\riscv64gc-unknown-none-elf\debug\deps\kernel-6d55ed35400b9dc4.8bzhb9fu7en3rtrx7zpckaf8v.10m4h80.rcgu.o:(.text._ZN6kernel4trap4init17h5537feab4dd0d560E)
        802005fc         802005fc       1c     1                 kernel::trap::init::h5537feab4dd0d560
        802005fc         802005fc        0     1                 .L0 
        802005fc         802005fc        0     1                 .L0 
        802005fc         802005fc        0     1                 .Lpcrel_hi42
        802005fc         802005fc        0     1                 $x
        802005fc         802005fc        0     1                 .L0 
        8020060a         8020060a        0     1                 .L0 
        80200612         80200612        0     1                 .L0 
        80200618         80200618        0     1                 .L0 
        80200618         80200618       3c     2         D:\rust\bogokernel\target\riscv64gc-unknown-none-elf\debug\deps\kernel-6d55ed35400b9dc4.8bzhb9fu7en3rtrx7zpckaf8v.10m4h80.rcgu.o:(.text._ZN6kernel5timer4init17h23823bf2a4185eebE)
        80200618         80200618       3c     1                 kernel::timer::init::h23823bf2a4185eeb
        80200618         80200618        0     1                 .L0 
        80200618         80200618        0     1                 .L0 
        80200618         80200618        0     1                 $x
        80200618         80200618        0     1                 .L0 
        80200622         80200622        0     1                 .L0 
        80200622         80200622        0     1                 .L0 
        80200626         80200626        0     1                 .L0 
        80200632         80200632        0     1                 .L0 
        8020063a         8020063a        0     1                 .L0 
        80200642         80200642        0     1                 .L0 
        80200644         80200644        0     1                 .L0 
        80200644         80200644        0     1                 .Lpcrel_hi43
        80200654         80200654        0     1                 .L0 
        80200654         80200654        0     1                 .L0 
        80200654         80200654       34     2         D:\rust\bogokernel\target\riscv64gc-unknown-none-elf\debug\deps\kernel-6d55ed35400b9dc4.8bzhb9fu7en3rtrx7zpckaf8v.10m4h80.rcgu.o:(.text._ZN4core3fmt5Write9write_fmt17hcc6444eaf295aae2E)
        80200654         80200654       34     1                 core::fmt::Write::write_fmt::hcc6444eaf295aae2
        80200654         80200654        0     1                 .L0 
        80200654         80200654        0     1                 .L0 
        80200654         80200654        0     1                 $x
        80200654         80200654        0     1                 .L0 
        80200658         80200658        0     1                 .L0 
        80200670         80200670        0     1                 .Lpcrel_hi44
        80200688         80200688        0     1                 .L0 
        80200688         80200688      118     2         D:\rust\bogokernel\target\riscv64gc-unknown-none-elf\debug\deps\kernel-6d55ed35400b9dc4.8bzhb9fu7en3rtrx7zpckaf8v.10m4h80.rcgu.o:(.text._ZN4core3fmt5Write10write_char17h093465c5641e88f7E)
        80200688         80200688      118     1                 core::fmt::Write::write_char::h093465c5641e88f7
        80200688         80200688        0     1                 .L0 
        80200688         80200688        0     1                 .L0 
        80200688         80200688        0     1                 $x
        80200688         80200688        0     1                 .L0 
        80200690         80200690        0     1                 .L0 
        80200690         80200690        0     1                 .L0 
        80200694         80200694        0     1                 .L0 
        80200694         80200694        0     1                 .L0 
        80200696         80200696        0     1                 .L0 
        80200696         80200696        0     1                 .L0 
        8020069c         8020069c        0     1                 .L0 
        8020069c         8020069c        0     1                 .L0 
        802006a2         802006a2        0     1                 .L0 
        802006a2         802006a2        0     1                 .L0 
        802006a4         802006a4        0     1                 .L0 
        802006a4         802006a4        0     1                 .L0 
        802006a8         802006a8        0     1                 .L0 
        802006ae         802006ae        0     1                 .L0 
        802006ae         802006ae        0     1                 .L0 
        802006c6         802006c6        0     1                 .L0 
        802006c8         802006c8        0     1                 .L0 
        802006c8         802006c8        0     1                 .L0 
        802006d2         802006d2        0     1                 .L0 
        802006d2         802006d2        0     1                 .L0 
        802006d6         802006d6        0     1                 .L0 
        802006d6         802006d6        0     1                 .L0 
        802006da         802006da        0     1                 .L0 
        802006e2         802006e2        0     1                 .L0 
        802006e4         802006e4        0     1                 .L0 
        802006e8         802006e8        0     1                 .L0 
        802006f2         802006f2        0     1                 .L0 
        802006f2         802006f2        0     1                 .L0 
        802006f6         802006f6        0     1                 .L0 
        802006f6         802006f6        0     1                 .L0 
        802006fa         802006fa        0     1                 .L0 
        802006fe         802006fe        0     1                 .L0 
        80200704         80200704        0     1                 .L0 
        80200706         80200706        0     1                 .L0 
        8020070a         8020070a        0     1                 .L0 
        8020070a         8020070a        0     1                 .L0 
        8020070e         8020070e        0     1                 .L0 
        8020070e         8020070e        0     1                 .L0 
        80200712         80200712        0     1                 .L0 
        80200718         80200718        0     1                 .L0 
        80200718         80200718        0     1                 .L0 
        8020071c         8020071c        0     1                 .L0 
        80200720         80200720        0     1                 .L0 
        80200726         80200726        0     1                 .L0 
        80200728         80200728        0     1                 .L0 
        8020072a         8020072a        0     1                 .L0 
        8020072a         8020072a        0     1                 .L0 
        8020072e         8020072e        0     1                 .L0 
        80200736         80200736        0     1                 .L0 
        80200736         80200736        0     1                 .L0 
        8020073c         8020073c        0     1                 .L0 
        8020073c         8020073c        0     1                 .L0 
        80200742         80200742        0     1                 .L0 
        80200742         80200742        0     1                 .L0 
        80200764         80200764        0     1                 .L0 
        8020076a         8020076a        0     1                 .L0 
        8020079e         8020079e        0     1                 .L0 
        802007a0         802007a0        0     1                 .L0 
        802007a0         802007a0        0     1                 .L0 
        802007a0         802007a0       5e     2         D:\rust\bogokernel\target\riscv64gc-unknown-none-elf\debug\deps\kernel-6d55ed35400b9dc4.8bzhb9fu7en3rtrx7zpckaf8v.10m4h80.rcgu.o:(.text._ZN55_$LT$kernel..uart..Uart$u20$as$u20$core..fmt..Write$GT$9write_str17he0ce69f569a92bf9E)
        802007a0         802007a0       5e     1                 _$LT$kernel..uart..Uart$u20$as$u20$core..fmt..Write$GT$::write_str::he0ce69f569a92bf9
        802007a0         802007a0        0     1                 .L0 
        802007a0         802007a0        0     1                 .L0 
        802007a0         802007a0        0     1                 $x
        802007a0         802007a0        0     1                 .L0 
        802007a4         802007a4        0     1                 .L0 
        802007a6         802007a6        0     1                 .L0 
        802007ac         802007ac        0     1                 .L0 
        802007b6         802007b6        0     1                 .L0 
        802007b6         802007b6        0     1                 .L0 
        802007ba         802007ba        0     1                 .L0 
        802007ba         802007ba        0     1                 .L0 
        802007be         802007be        0     1                 .L0 
        802007c2         802007c2        0     1                 .L0 
        802007c8         802007c8        0     1                 .L0 
        802007ca         802007ca        0     1                 .L0 
        802007ce         802007ce        0     1                 .L0 
        802007ce         802007ce        0     1                 .L0 
        802007d2         802007d2        0     1                 .L0 
        802007d2         802007d2        0     1                 .L0 
        802007d6         802007d6        0     1                 .L0 
        802007dc         802007dc        0     1                 .L0 
        802007dc         802007dc        0     1                 .L0 
        802007e0         802007e0        0     1                 .L0 
        802007e4         802007e4        0     1                 .L0 
        802007ea         802007ea        0     1                 .L0 
        802007ec         802007ec        0     1                 .L0 
        802007ee         802007ee        0     1                 .L0 
        802007ee         802007ee        0     1                 .L0 
        802007f2         802007f2        0     1                 .L0 
        802007fa         802007fa        0     1                 .L0 
        802007fa         802007fa        0     1                 .L0 
        802007fe         802007fe        0     1                 .L0 
        802007fe         802007fe       c4     2         D:\rust\bogokernel\target\riscv64gc-unknown-none-elf\debug\deps\kernel-6d55ed35400b9dc4.8bzhb9fu7en3rtrx7zpckaf8v.10m4h80.rcgu.o:(.text.user_main)
        802007fe         802007fe        0     1                 .L0 
        802007fe         802007fe        0     1                 .L0 
        802007fe         802007fe        0     1                 $x
        802007fe         802007fe        0     1                 .L0 
        802007fe         802007fe       c4     1                 user_main
        802008ba         802008ba        0     1                 .L0 
        802008c2         802008c2        0     1                 .L0 
        802008c2         802008c2       2c     2         D:\rust\bogokernel\target\riscv64gc-unknown-none-elf\debug\deps\kernel-6d55ed35400b9dc4.8bzhb9fu7en3rtrx7zpckaf8v.10m4h80.rcgu.o:(.text._ZN42_$LT$$RF$T$u20$as$u20$core..fmt..Debug$GT$3fmt17hc924d3c0ccf2f6a5E)
        802008c2         802008c2       2c     1                 _$LT$$RF$T$u20$as$u20$core..fmt..Debug$GT$::fmt::hc924d3c0ccf2f6a5
        802008c2         802008c2        0     1                 .L0 
        802008c2         802008c2        0     1                 .L0 
        802008c2         802008c2        0     1                 $x
        802008c2         802008c2        0     1                 .L0 
        802008c4         802008c4        0     1                 .L0 
        802008c4         802008c4        0     1                 .Lpcrel_hi45
        802008cc         802008cc        0     1                 .Lpcrel_hi46
        802008ee         802008ee        0     1                 .L0 
        802008ee         802008ee       2c     2         D:\rust\bogokernel\target\riscv64gc-unknown-none-elf\debug\deps\kernel-6d55ed35400b9dc4.8bzhb9fu7en3rtrx7zpckaf8v.10m4h80.rcgu.o:(.text._ZN42_$LT$$RF$T$u20$as$u20$core..fmt..Debug$GT$3fmt17h8a3ef0349bc2fee8E)
        802008ee         802008ee       2c     1                 _$LT$$RF$T$u20$as$u20$core..fmt..Debug$GT$::fmt::h8a3ef0349bc2fee8
        802008ee         802008ee        0     1                 .L0 
        802008ee         802008ee        0     1                 .L0 
        802008ee         802008ee        0     1                 $x
        802008ee         802008ee        0     1                 .L0 
        802008f0         802008f0        0     1                 .L0 
        802008f0         802008f0        0     1                 .Lpcrel_hi47
        802008f8         802008f8        0     1                 .Lpcrel_hi48
        8020091a         8020091a        0     1                 .L0 
        8020091a         8020091a       14     2         D:\rust\bogokernel\target\riscv64gc-unknown-none-elf\debug\deps\kernel-6d55ed35400b9dc4.8bzhb9fu7en3rtrx7zpckaf8v.10m4h80.rcgu.o:(.text._ZN44_$LT$$RF$T$u20$as$u20$core..fmt..Display$GT$3fmt17h24549ded31a78bc4E)
        8020091a         8020091a       14     1                 _$LT$$RF$T$u20$as$u20$core..fmt..Display$GT$::fmt::h24549ded31a78bc4
        8020091a         8020091a        0     1                 .L0 
        8020091a         8020091a        0     1                 .L0 
        8020091a         8020091a        0     1                 $x
        8020091a         8020091a        0     1                 .L0 
        8020092e         8020092e        0     1                 .L0 
        8020092e         8020092e       66     2         C:\Users\Magnus\.rustup\toolchains\nightly-x86_64-pc-windows-msvc\lib\rustlib\riscv64gc-unknown-none-elf\lib\libcore-6873ca3f970f9a34.rlib(core-6873ca3f970f9a34.core.d22cbba136389eb0-cgu.0.rcgu.o):(.text._ZN4core3fmt3num53_$LT$impl$u20$core..fmt..LowerHex$u20$for$u20$i64$GT$3fmt17he8fd4bd007576b76E)
        8020092e         8020092e        0     1                 .L0 
        8020092e         8020092e        0     1                 .L0 
        8020092e         8020092e        0     1                 $x
        8020092e         8020092e        0     1                 .L0 
        8020092e         8020092e       66     1                 core::fmt::num::_$LT$impl$u20$core..fmt..LowerHex$u20$for$u20$i64$GT$::fmt::he8fd4bd007576b76
        8020092e         8020092e       66     1                 core::fmt::num::_$LT$impl$u20$core..fmt..LowerHex$u20$for$u20$usize$GT$::fmt::ha8b797b3e5938554
        8020092e         8020092e       66     1                 core::fmt::num::_$LT$impl$u20$core..fmt..LowerHex$u20$for$u20$u64$GT$::fmt::ha4d5fdb55cb9a94f
        8020092e         8020092e       66     1                 core::fmt::num::_$LT$impl$u20$core..fmt..LowerHex$u20$for$u20$isize$GT$::fmt::h0e912713f281bf06
        8020093c         8020093c        0     1                 .L0 
        8020093c         8020093c        0     1                 .L0 
        80200944         80200944        0     1                 .L0 
        8020094a         8020094a        0     1                 .L0 
        8020094e         8020094e        0     1                 .L0 
        8020094e         8020094e        0     1                 .L0 
        80200954         80200954        0     1                 .L0 
        80200954         80200954        0     1                 .L0 
        80200958         80200958        0     1                 .L0 
        80200958         80200958        0     1                 .L0 
        80200960         80200960        0     1                 .L0 
        80200962         80200962        0     1                 .L0 
        80200966         80200966        0     1                 .L0 
        80200966         80200966        0     1                 .L0 
        8020096c         8020096c        0     1                 .L0 
        80200976         80200976        0     1                 .Lpcrel_hi14
        80200994         80200994        0     1                 .L0 
        80200994         80200994      13a     2         C:\Users\Magnus\.rustup\toolchains\nightly-x86_64-pc-windows-msvc\lib\rustlib\riscv64gc-unknown-none-elf\lib\libcore-6873ca3f970f9a34.rlib(core-6873ca3f970f9a34.core.d22cbba136389eb0-cgu.0.rcgu.o):(.text._ZN4core3fmt3num3imp52_$LT$impl$u20$core..fmt..Display$u20$for$u20$u32$GT$3fmt17h64d4789b153fc004E)
        80200994         80200994        0     1                 .L0 
        80200994         80200994        0     1                 .L0 
        80200994         80200994        0     1                 $x
        80200994         80200994        0     1                 .L0 
        80200994         80200994      13a     1                 core::fmt::num::imp::_$LT$impl$u20$core..fmt..Display$u20$for$u20$u32$GT$::fmt::h64d4789b153fc004
        802009a8         802009a8        0     1                 .Lpcrel_hi76
        802009b2         802009b2        0     1                 .L0 
        802009b2         802009b2        0     1                 .L0 
        802009e0         802009e0        0     1                 .L0 
        80200a26         80200a26        0     1                 .L0 
        80200a2a         80200a2a        0     1                 .L0 
        80200a2e         80200a2e        0     1                 .L0 
        80200a32         80200a32        0     1                 .L0 
        80200a36         80200a36        0     1                 .L0 
        80200a3c         80200a3c        0     1                 .L0 
        80200a3e         80200a3e        0     1                 .L0 
        80200a42         80200a42        0     1                 .L0 
        80200a78         80200a78        0     1                 .L0 
        80200a7c         80200a7c        0     1                 .L0 
        80200a82         80200a82        0     1                 .L0 
        80200a88         80200a88        0     1                 .L0 
        80200a9a         80200a9a        0     1                 .L0 
        80200a9e         80200a9e        0     1                 .L0 
        80200aa4         80200aa4        0     1                 .L0 
        80200aa8         80200aa8        0     1                 .L0 
        80200aaa         80200aaa        0     1                 .L0 
        80200ac8         80200ac8        0     1                 .L0 
        80200ac8         80200ac8        0     1                 .L0 
        80200ace         80200ace        0     1                 .L0 
        80200ace         80200ace        0     1                 .L0 
        80200ace         80200ace      13c     2         C:\Users\Magnus\.rustup\toolchains\nightly-x86_64-pc-windows-msvc\lib\rustlib\riscv64gc-unknown-none-elf\lib\libcore-6873ca3f970f9a34.rlib(core-6873ca3f970f9a34.core.d22cbba136389eb0-cgu.0.rcgu.o):(.text._ZN4core3fmt3num3imp52_$LT$impl$u20$core..fmt..Display$u20$for$u20$u64$GT$3fmt17h459d20970ace85f7E)
        80200ace         80200ace        0     1                 .L0 
        80200ace         80200ace        0     1                 .L0 
        80200ace         80200ace        0     1                 $x
        80200ace         80200ace        0     1                 .L0 
        80200ace         80200ace      13c     1                 core::fmt::num::imp::_$LT$impl$u20$core..fmt..Display$u20$for$u20$u64$GT$::fmt::h459d20970ace85f7
        80200ace         80200ace      13c     1                 core::fmt::num::imp::_$LT$impl$u20$core..fmt..Display$u20$for$u20$usize$GT$::fmt::hec246c5a521f0b26
        80200ae2         80200ae2        0     1                 .Lpcrel_hi123
        80200aea         80200aea        0     1                 .L0 
        80200aea         80200aea        0     1                 .L0 
        80200aee         80200aee        0     1                 .L0 
        80200af4         80200af4        0     1                 .Lpcrel_hi124
        80200b5c         80200b5c        0     1                 .L0 
        80200b60         80200b60        0     1                 .L0 
        80200b64         80200b64        0     1                 .L0 
        80200b68         80200b68        0     1                 .L0 
        80200b6c         80200b6c        0     1                 .L0 
        80200b72         80200b72        0     1                 .L0 
        80200b7e         80200b7e        0     1                 .L0 
        80200b84         80200b84        0     1                 .L0 
        80200b88         80200b88        0     1                 .L0 
        80200bc0         80200bc0        0     1                 .L0 
        80200bc4         80200bc4        0     1                 .L0 
        80200bca         80200bca        0     1                 .L0 
        80200bd2         80200bd2        0     1                 .L0 
        80200be2         80200be2        0     1                 .L0 
        80200bec         80200bec        0     1                 .L0 
        80200bee         80200bee        0     1                 .L0 
        80200c0a         80200c0a        0     1                 .L0 
        80200c0a         80200c0a      18c     2         C:\Users\Magnus\.rustup\toolchains\nightly-x86_64-pc-windows-msvc\lib\rustlib\riscv64gc-unknown-none-elf\lib\libcore-6873ca3f970f9a34.rlib(core-6873ca3f970f9a34.core.d22cbba136389eb0-cgu.0.rcgu.o):(.text._ZN4core3str5count14do_count_chars17h780613030ee15a12E)
        80200c0a         80200c0a        0     1                 .L0 
        80200c0a         80200c0a        0     1                 .L0 
        80200c0a         80200c0a        0     1                 $x
        80200c0a         80200c0a        0     1                 .L0 
        80200c0a         80200c0a      18c     1                 core::str::count::do_count_chars::h780613030ee15a12
        80200c10         80200c10        0     1                 .L0 
        80200c1a         80200c1a        0     1                 .L0 
        80200c1e         80200c1e        0     1                 .L0 
        80200c1e         80200c1e        0     1                 .L0 
        80200c20         80200c20        0     1                 .L0 
        80200c20         80200c20        0     1                 .L0 
        80200c22         80200c22        0     1                 .L0 
        80200c2a         80200c2a        0     1                 .L0 
        80200c32         80200c32        0     1                 .L0 
        80200c34         80200c34        0     1                 .L0 
        80200c38         80200c38        0     1                 .L0 
        80200c3e         80200c3e        0     1                 .L0 
        80200c42         80200c42        0     1                 .L0 
        80200c46         80200c46        0     1                 .L0 
        80200c46         80200c46        0     1                 .L0 
        80200c4a         80200c4a        0     1                 .L0 
        80200c52         80200c52        0     1                 .L0 
        80200c52         80200c52        0     1                 .L0 
        80200c56         80200c56        0     1                 .L0 
        80200c5c         80200c5c        0     1                 .L0 
        80200c64         80200c64        0     1                 .L0 
        80200c66         80200c66        0     1                 .L0 
        80200c6a         80200c6a        0     1                 .L0 
        80200c6c         80200c6c        0     1                 .L0 
        80200c6c         80200c6c        0     1                 .L0 
        80200c70         80200c70        0     1                 .L0 
        80200c80         80200c80        0     1                 .L0 
        80200c88         80200c88        0     1                 .L0 
        80200c8a         80200c8a        0     1                 .L0 
        80200c8e         80200c8e        0     1                 .L0 
        80200cb6         80200cb6        0     1                 .L0 
        80200cba         80200cba        0     1                 .L0 
        80200cc4         80200cc4        0     1                 .L0 
        80200cd2         80200cd2        0     1                 .L0 
        80200cd8         80200cd8        0     1                 .L0 
        80200cdc         80200cdc        0     1                 .L0 
        80200cf0         80200cf0        0     1                 .L0 
        80200cf0         80200cf0        0     1                 .L0 
        80200cf6         80200cf6        0     1                 .L0 
        80200cf6         80200cf6        0     1                 .L0 
        80200cfc         80200cfc        0     1                 .L0 
        80200d0a         80200d0a        0     1                 .L0 
        80200d36         80200d36        0     1                 .L0 
        80200d38         80200d38        0     1                 .L0 
        80200d44         80200d44        0     1                 .L0 
        80200d48         80200d48        0     1                 .L0 
        80200d4c         80200d4c        0     1                 .L0 
        80200d54         80200d54        0     1                 .L0 
        80200d5e         80200d5e        0     1                 .L0 
        80200d66         80200d66        0     1                 .L0 
        80200d68         80200d68        0     1                 .L0 
        80200d76         80200d76        0     1                 .L0 
        80200d78         80200d78        0     1                 .L0 
        80200d78         80200d78        0     1                 .L0 
        80200d7c         80200d7c        0     1                 .L0 
        80200d7c         80200d7c        0     1                 .L0 
        80200d88         80200d88        0     1                 .L0 
        80200d96         80200d96        0     1                 .L0 
        80200d96         80200d96        8     2         C:\Users\Magnus\.rustup\toolchains\nightly-x86_64-pc-windows-msvc\lib\rustlib\riscv64gc-unknown-none-elf\lib\libcore-6873ca3f970f9a34.rlib(core-6873ca3f970f9a34.core.d22cbba136389eb0-cgu.0.rcgu.o):(.text._ZN4core3fmt9Formatter9write_str17h20e3c650320b7f1bE)
        80200d96         80200d96        0     1                 .L0 
        80200d96         80200d96        0     1                 .L0 
        80200d96         80200d96        0     1                 $x
        80200d96         80200d96        0     1                 .L0 
        80200d96         80200d96        8     1                 core::fmt::Formatter::write_str::h20e3c650320b7f1b
        80200d96         80200d96        8     1                 _$LT$core..fmt..Formatter$u20$as$u20$core..fmt..Write$GT$::write_str::hd830e570034a73d5
        80200d9e         80200d9e        0     1                 .L0 
        80200d9e         80200d9e      250     2         C:\Users\Magnus\.rustup\toolchains\nightly-x86_64-pc-windows-msvc\lib\rustlib\riscv64gc-unknown-none-elf\lib\libcore-6873ca3f970f9a34.rlib(core-6873ca3f970f9a34.core.d22cbba136389eb0-cgu.0.rcgu.o):(.text._ZN4core3fmt9Formatter12pad_integral17he1be340114daf620E)
        80200d9e         80200d9e        0     1                 .L0 
        80200d9e         80200d9e        0     1                 .L0 
        80200d9e         80200d9e        0     1                 $x
        80200d9e         80200d9e        0     1                 .L0 
        80200d9e         80200d9e      250     1                 core::fmt::Formatter::pad_integral::he1be340114daf620
        80200dc6         80200dc6        0     1                 .L0 
        80200dc8         80200dc8        0     1                 .L0 
        80200dc8         80200dc8        0     1                 .L0 
        80200dd8         80200dd8        0     1                 .L0 
        80200dda         80200dda        0     1                 .L0 
        80200de4         80200de4        0     1                 .L0 
        80200dec         80200dec        0     1                 .L0 
        80200df0         80200df0        0     1                 .L0 
        80200df0         80200df0        0     1                 .L0 
        80200df4         80200df4        0     1                 .L0 
        80200df6         80200df6        0     1                 .L0 
        80200df6         80200df6        0     1                 .L0 
        80200dfa         80200dfa        0     1                 .L0 
        80200e06         80200e06        0     1                 .L0 
        80200e0e         80200e0e        0     1                 .L0 
        80200e10         80200e10        0     1                 .L0 
        80200e14         80200e14        0     1                 .L0 
        80200e14         80200e14        0     1                 .L0 
        80200e1a         80200e1a        0     1                 .L0 
        80200e1e         80200e1e        0     1                 .L0 
        80200e2a         80200e2a        0     1                 .L0 
        80200e2e         80200e2e        0     1                 .L0 
        80200e36         80200e36        0     1                 .L0 
        80200e38         80200e38        0     1                 .L0 
        80200e38         80200e38        0     1                 .L0 
        80200e40         80200e40        0     1                 .L0 
        80200e42         80200e42        0     1                 .L0 
        80200e44         80200e44        0     1                 .L0 
        80200e44         80200e44        0     1                 .L0 
        80200e50         80200e50        0     1                 .L0 
        80200e58         80200e58        0     1                 .L0 
        80200e5e         80200e5e        0     1                 .L0 
        80200e62         80200e62        0     1                 .L0 
        80200e7c         80200e7c        0     1                 .L0 
        80200e7c         80200e7c        0     1                 .L0 
        80200e7e         80200e7e        0     1                 .L0 
        80200ea4         80200ea4        0     1                 .L0 
        80200eb0         80200eb0        0     1                 .L0 
        80200eb6         80200eb6        0     1                 .L0 
        80200ebc         80200ebc        0     1                 .L0 
        80200ed0         80200ed0        0     1                 .L0 
        80200ed8         80200ed8        0     1                 .L0 
        80200ede         80200ede        0     1                 .L0 
        80200ef4         80200ef4        0     1                 .L0 
        80200f02         80200f02        0     1                 .L0 
        80200f02         80200f02        0     1                 .L0 
        80200f0a         80200f0a        0     1                 .L0 
        80200f0a         80200f0a        0     1                 .L0 
        80200f0e         80200f0e        0     1                 .L0 
        80200f10         80200f10        0     1                 .L0 
        80200f18         80200f18        0     1                 .L0 
        80200f18         80200f18        0     1                 .L0 
        80200f1c         80200f1c        0     1                 .L0 
        80200f20         80200f20        0     1                 .L0 
        80200f20         80200f20        0     1                 .L0 
        80200f24         80200f24        0     1                 .L0 
        80200f24         80200f24        0     1                 .L0 
        80200f2e         80200f2e        0     1                 .L0 
        80200f2e         80200f2e        0     1                 .L0 
        80200f3c         80200f3c        0     1                 .L0 
        80200f3e         80200f3e        0     1                 .L0 
        80200f40         80200f40        0     1                 .L0 
        80200f46         80200f46        0     1                 .L0 
        80200f62         80200f62        0     1                 .L0 
        80200f66         80200f66        0     1                 .L0 
        80200f6a         80200f6a        0     1                 .L0 
        80200f6a         80200f6a        0     1                 .L0 
        80200f6e         80200f6e        0     1                 .L0 
        80200f70         80200f70        0     1                 .L0 
        80200f76         80200f76        0     1                 .L0 
        80200f76         80200f76        0     1                 .L0 
        80200f78         80200f78        0     1                 .L0 
        80200f78         80200f78        0     1                 .L0 
        80200f9a         80200f9a        0     1                 .L0 
        80200fb0         80200fb0        0     1                 .L0 
        80200fbe         80200fbe        0     1                 .L0 
        80200fc0         80200fc0        0     1                 .L0 
        80200fd2         80200fd2        0     1                 .L0 
        80200fda         80200fda        0     1                 .L0 
        80200fde         80200fde        0     1                 .L0 
        80200fde         80200fde        0     1                 .L0 
        80200fe2         80200fe2        0     1                 .L0 
        80200fe4         80200fe4        0     1                 .L0 
        80200fea         80200fea        0     1                 .L0 
        80200fea         80200fea        0     1                 .L0 
        80200fee         80200fee        0     1                 .L0 
        80200fee         80200fee       ce     2         C:\Users\Magnus\.rustup\toolchains\nightly-x86_64-pc-windows-msvc\lib\rustlib\riscv64gc-unknown-none-elf\lib\libcore-6873ca3f970f9a34.rlib(core-6873ca3f970f9a34.core.d22cbba136389eb0-cgu.0.rcgu.o):(.text._ZN43_$LT$char$u20$as$u20$core..fmt..Display$GT$3fmt17h482cdef3316a710dE)
        80200fee         80200fee        0     1                 .L0 
        80200fee         80200fee        0     1                 .L0 
        80200fee         80200fee        0     1                 $x
        80200fee         80200fee        0     1                 .L0 
        80200fee         80200fee       ce     1                 _$LT$char$u20$as$u20$core..fmt..Display$GT$::fmt::h482cdef3316a710d
        80200ff6         80200ff6        0     1                 .L0 
        80201006         80201006        0     1                 .L0 
        8020100a         8020100a        0     1                 .L0 
        8020100a         8020100a        0     1                 .L0 
        8020100e         8020100e        0     1                 .L0 
        8020100e         8020100e        0     1                 .L0 
        80201014         80201014        0     1                 .L0 
        80201016         80201016        0     1                 .L0 
        80201016         80201016        0     1                 .L0 
        8020101e         8020101e        0     1                 .L0 
        8020101e         8020101e        0     1                 .L0 
        80201024         80201024        0     1                 .L0 
        80201024         80201024        0     1                 .L0 
        8020103e         8020103e        0     1                 .L0 
        80201040         80201040        0     1                 .L0 
        80201040         80201040        0     1                 .L0 
        80201044         80201044        0     1                 .L0 
        80201044         80201044        0     1                 .L0 
        80201046         80201046        0     1                 .L0 
        80201068         80201068        0     1                 .L0 
        80201070         80201070        0     1                 .L0 
        802010a6         802010a6        0     1                 .L0 
        802010bc         802010bc        0     1                 .L0 
        802010bc         802010bc      1c4     2         C:\Users\Magnus\.rustup\toolchains\nightly-x86_64-pc-windows-msvc\lib\rustlib\riscv64gc-unknown-none-elf\lib\libcore-6873ca3f970f9a34.rlib(core-6873ca3f970f9a34.core.d22cbba136389eb0-cgu.0.rcgu.o):(.text._ZN4core3fmt9Formatter3pad17h17daf6158814cf2fE)
        802010bc         802010bc        0     1                 .L0 
        802010bc         802010bc        0     1                 .L0 
        802010bc         802010bc        0     1                 $x
        802010bc         802010bc        0     1                 .L0 
        802010bc         802010bc      1c4     1                 core::fmt::Formatter::pad::h17daf6158814cf2f
        802010da         802010da        0     1                 .L0 
        802010e8         802010e8        0     1                 .L0 
        802010e8         802010e8        0     1                 .L0 
        802010f0         802010f0        0     1                 .L0 
        802010f0         802010f0        0     1                 .L0 
        802010f4         802010f4        0     1                 .L0 
        802010f4         802010f4        0     1                 .L0 
        802010f8         802010f8        0     1                 .L0 
        802010fa         802010fa        0     1                 .L0 
        802010fa         802010fa        0     1                 .L0 
        802010fe         802010fe        0     1                 .L0 
        8020110a         8020110a        0     1                 .L0 
        80201112         80201112        0     1                 .L0 
        80201114         80201114        0     1                 .L0 
        80201118         80201118        0     1                 .L0 
        80201118         80201118        0     1                 .L0 
        80201120         80201120        0     1                 .L0 
        80201126         80201126        0     1                 .L0 
        8020112e         8020112e        0     1                 .L0 
        80201132         80201132        0     1                 .L0 
        80201132         80201132        0     1                 .L0 
        80201138         80201138        0     1                 .L0 
        80201138         80201138        0     1                 .L0 
        8020113a         8020113a        0     1                 .L0 
        8020113c         8020113c        0     1                 .L0 
        8020113c         8020113c        0     1                 .L0 
        80201140         80201140        0     1                 .L0 
        80201140         80201140        0     1                 .L0 
        80201144         80201144        0     1                 .L0 
        80201158         80201158        0     1                 .L0 
        8020115c         8020115c        0     1                 .L0 
        8020115c         8020115c        0     1                 .L0 
        80201160         80201160        0     1                 .L0 
        80201162         80201162        0     1                 .L0 
        80201168         80201168        0     1                 .L0 
        80201168         80201168        0     1                 .L0 
        8020116a         8020116a        0     1                 .L0 
        8020116a         8020116a        0     1                 .L0 
        8020116e         8020116e        0     1                 .L0 
        80201172         80201172        0     1                 .L0 
        80201176         80201176        0     1                 .L0 
        8020117a         8020117a        0     1                 .L0 
        8020117e         8020117e        0     1                 .L0 
        80201182         80201182        0     1                 .L0 
        80201182         80201182        0     1                 .L0 
        80201188         80201188        0     1                 .L0 
        8020118c         8020118c        0     1                 .L0 
        8020118e         8020118e        0     1                 .L0 
        80201192         80201192        0     1                 .L0 
        80201194         80201194        0     1                 .L0 
        80201194         80201194        0     1                 .L0 
        80201196         80201196        0     1                 .L0 
        8020119e         8020119e        0     1                 .L0 
        802011c6         802011c6        0     1                 .L0 
        802011d6         802011d6        0     1                 .L0 
        802011d6         802011d6        0     1                 .L0 
        802011e0         802011e0        0     1                 .L0 
        802011e2         802011e2        0     1                 .L0 
        802011e2         802011e2        0     1                 .L0 
        802011e6         802011e6        0     1                 .L0 
        802011e6         802011e6        0     1                 .L0 
        80201204         80201204        0     1                 .L0 
        80201208         80201208        0     1                 .L0 
        8020120c         8020120c        0     1                 .L0 
        8020120c         8020120c        0     1                 .L0 
        80201210         80201210        0     1                 .L0 
        80201212         80201212        0     1                 .L0 
        80201218         80201218        0     1                 .L0 
        80201218         80201218        0     1                 .L0 
        8020121c         8020121c        0     1                 .L0 
        8020121c         8020121c        0     1                 .L0 
        80201228         80201228        0     1                 .L0 
        8020122a         8020122a        0     1                 .L0 
        8020124c         8020124c        0     1                 .L0 
        80201256         80201256        0     1                 .L0 
        80201264         80201264        0     1                 .L0 
        80201264         80201264        0     1                 .L0 
        80201270         80201270        0     1                 .L0 
        80201270         80201270        0     1                 .L0 
        80201274         80201274        0     1                 .L0 
        80201276         80201276        0     1                 .L0 
        80201276         80201276        0     1                 .L0 
        80201280         80201280        0     1                 .L0 
        80201280         80201280       10     2         C:\Users\Magnus\.rustup\toolchains\nightly-x86_64-pc-windows-msvc\lib\rustlib\riscv64gc-unknown-none-elf\lib\libcore-6873ca3f970f9a34.rlib(core-6873ca3f970f9a34.core.d22cbba136389eb0-cgu.0.rcgu.o):(.text._ZN42_$LT$str$u20$as$u20$core..fmt..Display$GT$3fmt17haec16f4c8fa75143E)
        80201280         80201280        0     1                 .L0 
        80201280         80201280        0     1                 .L0 
        80201280         80201280        0     1                 $x
        80201280         80201280        0     1                 .L0 
        80201280         80201280       10     1                 _$LT$str$u20$as$u20$core..fmt..Display$GT$::fmt::haec16f4c8fa75143
        80201290         80201290        0     1                 .L0 
        80201290         80201290      122     2         C:\Users\Magnus\.rustup\toolchains\nightly-x86_64-pc-windows-msvc\lib\rustlib\riscv64gc-unknown-none-elf\lib\libcore-6873ca3f970f9a34.rlib(core-6873ca3f970f9a34.core.d22cbba136389eb0-cgu.0.rcgu.o):(.text._ZN4core3fmt9Formatter25debug_tuple_field1_finish17ha73284ca7fda3d02E)
        80201290         80201290        0     1                 .L0 
        80201290         80201290        0     1                 .L0 
        80201290         80201290        0     1                 $x
        80201290         80201290        0     1                 .L0 
        80201290         80201290      122     1                 core::fmt::Formatter::debug_tuple_field1_finish::ha73284ca7fda3d02
        802012b0         802012b0        0     1                 .L0 
        802012c2         802012c2        0     1                 .L0 
        802012c2         802012c2        0     1                 .L0 
        802012c4         802012c4        0     1                 .L0 
        802012c4         802012c4        0     1                 .L0 
        802012de         802012de        0     1                 .L0 
        802012de         802012de        0     1                 .L0 
        802012e8         802012e8        0     1                 .Lpcrel_hi213
        802012e8         802012e8        0     1                 .L0 
        802012e8         802012e8        0     1                 .L0 
        802012f8         802012f8        0     1                 .L0 
        802012f8         802012f8        0     1                 .L0 
        802012fa         802012fa        0     1                 .L0 
        802012fe         802012fe        0     1                 .L0 
        80201304         80201304        0     1                 .L0 
        80201304         80201304        0     1                 .L0 
        80201308         80201308        0     1                 .L0 
        80201308         80201308        0     1                 .Lpcrel_hi214
        80201308         80201308        0     1                 .L0 
        80201316         80201316        0     1                 .L0 
        80201316         80201316        0     1                 .L0 
        80201318         80201318        0     1                 .L0 
        8020131e         8020131e        0     1                 .L0 
        80201326         80201326        0     1                 .L0 
        80201332         80201332        0     1                 .Lpcrel_hi215
        80201336         80201336        0     1                 .L0 
        8020133a         8020133a        0     1                 .L0 
        8020133e         8020133e        0     1                 .L0 
        80201342         80201342        0     1                 .L0 
        8020134e         8020134e        0     1                 .L0 
        80201356         80201356        0     1                 .L0 
        80201356         80201356        0     1                 .L0 
        80201358         80201358        0     1                 .L0 
        80201358         80201358        0     1                 .L0 
        80201362         80201362        0     1                 .Lpcrel_hi216
        8020136e         8020136e        0     1                 .L0 
        8020136e         8020136e        0     1                 .L0 
        80201370         80201370        0     1                 .L0 
        80201370         80201370        0     1                 .L0 
        80201374         80201374        0     1                 .L0 
        8020137e         8020137e        0     1                 .L0 
        8020137e         8020137e        0     1                 .L0 
        80201388         80201388        0     1                 .Lpcrel_hi218
        80201396         80201396        0     1                 .L0 
        80201396         80201396        0     1                 .L0 
        80201398         80201398        0     1                 .L0 
        80201398         80201398        0     1                 .L0 
        802013a2         802013a2        0     1                 .Lpcrel_hi217
        802013b0         802013b0        0     1                 .L0 
        802013b2         802013b2        0     1                 .L0 
        802013b2         802013b2        0     1                 .L0 
        802013b2         802013b2       60     2         C:\Users\Magnus\.rustup\toolchains\nightly-x86_64-pc-windows-msvc\lib\rustlib\riscv64gc-unknown-none-elf\lib\libcore-6873ca3f970f9a34.rlib(core-6873ca3f970f9a34.core.d22cbba136389eb0-cgu.0.rcgu.o):(.text._ZN4core3fmt9Formatter12pad_integral12write_prefix17h4f41090082e0dffbE)
        802013b2         802013b2       60     1                 core::fmt::Formatter::pad_integral::write_prefix::h4f41090082e0dffb
        802013b2         802013b2        0     1                 .L0 
        802013b2         802013b2        0     1                 .L0 
        802013b2         802013b2        0     1                 $x
        802013b2         802013b2        0     1                 .L0 
        802013cc         802013cc        0     1                 .L0 
        802013d0         802013d0        0     1                 .L0 
        802013de         802013de        0     1                 .L0 
        802013de         802013de        0     1                 .L0 
        802013e0         802013e0        0     1                 .L0 
        802013e2         802013e2        0     1                 .L0 
        802013e4         802013e4        0     1                 .L0 
        802013e8         802013e8        0     1                 .L0 
        80201412         80201412        0     1                 .L0 
        80201412         80201412      194     2         C:\Users\Magnus\.rustup\toolchains\nightly-x86_64-pc-windows-msvc\lib\rustlib\riscv64gc-unknown-none-elf\lib\libcore-6873ca3f970f9a34.rlib(core-6873ca3f970f9a34.core.d22cbba136389eb0-cgu.0.rcgu.o):(.text._ZN4core3fmt5write17h9939f78699402f1cE)
        80201412         80201412        0     1                 .L0 
        80201412         80201412        0     1                 .L0 
        80201412         80201412        0     1                 $x
        80201412         80201412        0     1                 .L0 
        80201412         80201412      194     1                 core::fmt::write::h9939f78699402f1c
        80201438         80201438        0     1                 .L0 
        80201444         80201444        0     1                 .L0 
        80201446         80201446        0     1                 .L0 
        8020144a         8020144a        0     1                 .L0 
        8020144a         8020144a        0     1                 .L0 
        8020144e         8020144e        0     1                 .L0 
        80201474         80201474        0     1                 .L0 
        80201474         80201474        0     1                 .L0 
        8020147a         8020147a        0     1                 .L0 
        80201488         80201488        0     1                 .L0 
        8020148c         8020148c        0     1                 .L0 
        8020148c         8020148c        0     1                 .L0 
        80201490         80201490        0     1                 .L0 
        80201496         80201496        0     1                 .L0 
        80201498         80201498        0     1                 .L0 
        8020149c         8020149c        0     1                 .L0 
        802014a0         802014a0        0     1                 .L0 
        802014a4         802014a4        0     1                 .L0 
        802014ac         802014ac        0     1                 .L0 
        802014b0         802014b0        0     1                 .L0 
        802014b4         802014b4        0     1                 .L0 
        802014b4         802014b4        0     1                 .L0 
        802014ba         802014ba        0     1                 .L0 
        802014ba         802014ba        0     1                 .L0 
        802014be         802014be        0     1                 .L0 
        802014c2         802014c2        0     1                 .L0 
        802014c6         802014c6        0     1                 .L0 
        802014c8         802014c8        0     1                 .L0 
        802014ca         802014ca        0     1                 .L0 
        802014d0         802014d0        0     1                 .L0 
        802014d6         802014d6        0     1                 .L0 
        802014da         802014da        0     1                 .L0 
        802014de         802014de        0     1                 .L0 
        802014e4         802014e4        0     1                 .L0 
        802014e8         802014e8        0     1                 .L0 
        802014f4         802014f4        0     1                 .L0 
        802014fa         802014fa        0     1                 .L0 
        802014fa         802014fa        0     1                 .L0 
        802014fc         802014fc        0     1                 .L0 
        802014fc         802014fc        0     1                 .L0 
        80201506         80201506        0     1                 .L0 
        8020150c         8020150c        0     1                 .L0 
        8020150c         8020150c        0     1                 .L0 
        80201510         80201510        0     1                 .L0 
        80201510         80201510        0     1                 .L0 
        80201512         80201512        0     1                 .L0 
        8020152c         8020152c        0     1                 .L0 
        8020152c         8020152c        0     1                 .L0 
        80201532         80201532        0     1                 .L0 
        80201542         80201542        0     1                 .L0 
        80201544         80201544        0     1                 .L0 
        80201544         80201544        0     1                 .L0 
        8020154e         8020154e        0     1                 .L0 
        80201550         80201550        0     1                 .L0 
        80201550         80201550        0     1                 .L0 
        80201554         80201554        0     1                 .L0 
        80201558         80201558        0     1                 .L0 
        80201558         80201558        0     1                 .L0 
        8020155c         8020155c        0     1                 .L0 
        80201562         80201562        0     1                 .L0 
        80201568         80201568        0     1                 .L0 
        8020156a         8020156a        0     1                 .L0 
        8020156a         8020156a        0     1                 .L0 
        80201570         80201570        0     1                 .L0 
        80201578         80201578        0     1                 .L0 
        8020157a         8020157a        0     1                 .L0 
        80201584         80201584        0     1                 .L0 
        80201588         80201588        0     1                 .L0 
        8020158e         8020158e        0     1                 .L0 
        802015a6         802015a6        0     1                 .L0 
        802015a6         802015a6       12     2         C:\Users\Magnus\.rustup\toolchains\nightly-x86_64-pc-windows-msvc\lib\rustlib\riscv64gc-unknown-none-elf\lib\libcore-6873ca3f970f9a34.rlib(core-6873ca3f970f9a34.core.d22cbba136389eb0-cgu.0.rcgu.o):(.text._ZN4core3fmt5Write9write_fmt17h09001017fa9aac5eE)
        802015a6         802015a6       12     1                 core::fmt::Write::write_fmt::h09001017fa9aac5e
        802015a6         802015a6        0     1                 .L0 
        802015a6         802015a6        0     1                 .L0 
        802015a6         802015a6        0     1                 $x
        802015a6         802015a6        0     1                 .L0 
        802015a8         802015a8        0     1                 .Lpcrel_hi265
        802015a8         802015a8        0     1                 .L0 
        802015b8         802015b8        0     1                 .L0 
        802015b8         802015b8      1f6     2         C:\Users\Magnus\.rustup\toolchains\nightly-x86_64-pc-windows-msvc\lib\rustlib\riscv64gc-unknown-none-elf\lib\libcore-6873ca3f970f9a34.rlib(core-6873ca3f970f9a34.core.d22cbba136389eb0-cgu.0.rcgu.o):(.text._ZN68_$LT$core..fmt..builders..PadAdapter$u20$as$u20$core..fmt..Write$GT$9write_str17h4a32a46ee5ba0180E)
        802015b8         802015b8        0     1                 .L0 
        802015b8         802015b8        0     1                 .L0 
        802015b8         802015b8        0     1                 $x
        802015b8         802015b8        0     1                 .L0 
        802015b8         802015b8      1f6     1                 _$LT$core..fmt..builders..PadAdapter$u20$as$u20$core..fmt..Write$GT$::write_str::h4a32a46ee5ba0180
        802015e4         802015e4        0     1                 .Lpcrel_hi270
        802015f6         802015f6        0     1                 .L0 
        802015fe         802015fe        0     1                 .Lpcrel_hi271
        80201624         80201624        0     1                 .L0 
        80201624         80201624        0     1                 .L0 
        80201628         80201628        0     1                 .L0 
        80201632         80201632        0     1                 .L0 
        8020164e         8020164e        0     1                 .L0 
        8020164e         8020164e        0     1                 .L0 
        80201652         80201652        0     1                 .L0 
        80201652         80201652        0     1                 .L0 
        8020165a         8020165a        0     1                 .L0 
        8020165a         8020165a        0     1                 .L0 
        80201660         80201660        0     1                 .L0 
        80201664         80201664        0     1                 .L0 
        80201668         80201668        0     1                 .L0 
        8020166c         8020166c        0     1                 .L0 
        8020166c         8020166c        0     1                 .L0 
        80201672         80201672        0     1                 .L0 
        80201672         80201672        0     1                 .L0 
        80201676         80201676        0     1                 .L0 
        80201680         80201680        0     1                 .L0 
        80201688         80201688        0     1                 .L0 
        80201692         80201692        0     1                 .L0 
        80201692         80201692        0     1                 .L0 
        80201698         80201698        0     1                 .L0 
        8020169c         8020169c        0     1                 .L0 
        802016a6         802016a6        0     1                 .L0 
        802016b2         802016b2        0     1                 .Lpcrel_hi272
        802016c2         802016c2        0     1                 .L0 
        802016c8         802016c8        0     1                 .L0 
        802016ce         802016ce        0     1                 .L0 
        802016d6         802016d6        0     1                 .L0 
        802016d8         802016d8        0     1                 .L0 
        802016de         802016de        0     1                 .L0 
        802016e2         802016e2        0     1                 .L0 
        802016e2         802016e2        0     1                 .L0 
        802016ee         802016ee        0     1                 .L0 
        802016f0         802016f0        0     1                 .L0 
        802016f4         802016f4        0     1                 .L0 
        802016f8         802016f8        0     1                 .L0 
        802016fc         802016fc        0     1                 .L0 
        802016fc         802016fc        0     1                 .L0 
        80201700         80201700        0     1                 .L0 
        80201712         80201712        0     1                 .L0 
        8020171a         8020171a        0     1                 .L0 
        80201724         80201724        0     1                 .L0 
        80201730         80201730        0     1                 .L0 
        80201734         80201734        0     1                 .L0 
        80201734         80201734        0     1                 .L0 
        80201736         80201736        0     1                 .L0 
        8020173a         8020173a        0     1                 .L0 
        8020173e         8020173e        0     1                 .L0 
        80201748         80201748        0     1                 .L0 
        80201750         80201750        0     1                 .L0 
        80201760         80201760        0     1                 .L0 
        80201766         80201766        0     1                 .L0 
        80201776         80201776        0     1                 .L0 
        80201776         80201776        0     1                 .L0 
        80201778         80201778        0     1                 .L0 
        8020177e         8020177e        0     1                 .L0 
        8020177e         8020177e        0     1                 .L0 
        80201780         80201780        0     1                 .L0 
        80201780         80201780        0     1                 .L0 
        80201790         80201790        0     1                 .L0 
        802017ae         802017ae        0     1                 .L0 
        802017ae         802017ae       6e     2         C:\Users\Magnus\.rustup\toolchains\nightly-x86_64-pc-windows-msvc\lib\rustlib\riscv64gc-unknown-none-elf\lib\libcore-6873ca3f970f9a34.rlib(core-6873ca3f970f9a34.core.d22cbba136389eb0-cgu.0.rcgu.o):(.text._ZN68_$LT$core..fmt..builders..PadAdapter$u20$as$u20$core..fmt..Write$GT$10write_char17h4340ab6fbb38264bE)
        802017ae         802017ae        0     1                 .L0 
        802017ae         802017ae        0     1                 .L0 
        802017ae         802017ae        0     1                 $x
        802017ae         802017ae        0     1                 .L0 
        802017ae         802017ae       6e     1                 _$LT$core..fmt..builders..PadAdapter$u20$as$u20$core..fmt..Write$GT$::write_char::h4340ab6fbb38264b
        802017cc         802017cc        0     1                 .L0 
        802017ce         802017ce        0     1                 .L0 
        802017d2         802017d2        0     1                 .Lpcrel_hi312
        802017e6         802017e6        0     1                 .L0 
        802017e6         802017e6        0     1                 .L0 
        802017e8         802017e8        0     1                 .L0 
        8020181c         8020181c        0     1                 .L0 
        8020181c         8020181c       22     2         C:\Users\Magnus\.rustup\toolchains\nightly-x86_64-pc-windows-msvc\lib\rustlib\riscv64gc-unknown-none-elf\lib\libcore-6873ca3f970f9a34.rlib(core-6873ca3f970f9a34.core.d22cbba136389eb0-cgu.0.rcgu.o):(.text.unlikely._ZN4core9panicking9panic_fmt17hb8e863cd8e03d30aE)
        8020181c         8020181c        0     1                 .L0 
        8020181c         8020181c        0     1                 .L0 
        8020181c         8020181c        0     1                 $x
        8020181c         8020181c        0     1                 .L0 
        8020181c         8020181c       22     1                 core::panicking::panic_fmt::hb8e863cd8e03d30a
        80201826         80201826        0     1                 .L0 
        8020183e         8020183e        0     1                 .L0 
        8020183e         8020183e       36     2         C:\Users\Magnus\.rustup\toolchains\nightly-x86_64-pc-windows-msvc\lib\rustlib\riscv64gc-unknown-none-elf\lib\libcore-6873ca3f970f9a34.rlib(core-6873ca3f970f9a34.core.d22cbba136389eb0-cgu.0.rcgu.o):(.text.unlikely._ZN4core9panicking11panic_const24panic_const_add_overflow17h74b9002337f1049dE)
        8020183e         8020183e        0     1                 .L0 
        8020183e         8020183e        0     1                 .L0 
        8020183e         8020183e        0     1                 $x
        8020183e         8020183e        0     1                 .L0 
        8020183e         8020183e       36     1                 core::panicking::panic_const::panic_const_add_overflow::h74b9002337f1049d
        80201848         80201848        0     1                 .Lpcrel_hi1177
        80201848         80201848        0     1                 .L0 
        80201874         80201874        0     1                 .L0 
        80202000         80202000      768  4096 .rodata
        80202000         80202000       38     8         <internal>:(.rodata.cst8)
        80202038         80202038       d0     8         D:\rust\bogokernel\target\riscv64gc-unknown-none-elf\debug\deps\kernel-6d55ed35400b9dc4.8bzhb9fu7en3rtrx7zpckaf8v.10m4h80.rcgu.o:(.rodata.rust_trap)
        80202038         80202038        0     1                 .LJTI0_0
        80202038         80202038        0     1                 $d
        80202088         80202088        0     1                 .LJTI0_1
        80202108         80202108       20     8         <internal>:(.rodata.cst16)
        80202128         80202128       13     1         D:\rust\bogokernel\target\riscv64gc-unknown-none-elf\debug\deps\kernel-6d55ed35400b9dc4.8bzhb9fu7en3rtrx7zpckaf8v.10m4h80.rcgu.o:(.rodata..Lanon.5edbc6cc0b3cb8300fb40d5971ceb268.1)
        80202128         80202128       13     1                 .Lanon.5edbc6cc0b3cb8300fb40d5971ceb268.1
        80202128         80202128        0     1                 $d
        8020213b         8020213b        1     1         D:\rust\bogokernel\target\riscv64gc-unknown-none-elf\debug\deps\kernel-6d55ed35400b9dc4.8bzhb9fu7en3rtrx7zpckaf8v.10m4h80.rcgu.o:(.rodata..Lanon.5edbc6cc0b3cb8300fb40d5971ceb268.2)
        8020213b         8020213b        1     1                 .Lanon.5edbc6cc0b3cb8300fb40d5971ceb268.2
        8020213b         8020213b        0     1                 $d
        80202140         80202140       20     8         D:\rust\bogokernel\target\riscv64gc-unknown-none-elf\debug\deps\kernel-6d55ed35400b9dc4.8bzhb9fu7en3rtrx7zpckaf8v.10m4h80.rcgu.o:(.rodata..Lanon.5edbc6cc0b3cb8300fb40d5971ceb268.3)
        80202140         80202140       20     1                 .Lanon.5edbc6cc0b3cb8300fb40d5971ceb268.3
        80202140         80202140        0     1                 $d
        80202160         80202160       16     1         D:\rust\bogokernel\target\riscv64gc-unknown-none-elf\debug\deps\kernel-6d55ed35400b9dc4.8bzhb9fu7en3rtrx7zpckaf8v.10m4h80.rcgu.o:(.rodata..Lanon.5edbc6cc0b3cb8300fb40d5971ceb268.4)
        80202160         80202160       16     1                 .Lanon.5edbc6cc0b3cb8300fb40d5971ceb268.4
        80202160         80202160        0     1                 $d
        80202178         80202178       30     8         D:\rust\bogokernel\target\riscv64gc-unknown-none-elf\debug\deps\kernel-6d55ed35400b9dc4.8bzhb9fu7en3rtrx7zpckaf8v.10m4h80.rcgu.o:(.rodata..Lanon.5edbc6cc0b3cb8300fb40d5971ceb268.6)
        80202178         80202178       30     1                 .Lanon.5edbc6cc0b3cb8300fb40d5971ceb268.6
        80202178         80202178        0     1                 $d
        802021a8         802021a8       60     8         D:\rust\bogokernel\target\riscv64gc-unknown-none-elf\debug\deps\kernel-6d55ed35400b9dc4.8bzhb9fu7en3rtrx7zpckaf8v.10m4h80.rcgu.o:(.rodata..Lanon.5edbc6cc0b3cb8300fb40d5971ceb268.7)
        802021a8         802021a8       60     1                 .Lanon.5edbc6cc0b3cb8300fb40d5971ceb268.7
        802021a8         802021a8        0     1                 $d
        80202208         80202208       20     8         D:\rust\bogokernel\target\riscv64gc-unknown-none-elf\debug\deps\kernel-6d55ed35400b9dc4.8bzhb9fu7en3rtrx7zpckaf8v.10m4h80.rcgu.o:(.rodata..Lanon.5edbc6cc0b3cb8300fb40d5971ceb268.8)
        80202208         80202208       20     1                 .Lanon.5edbc6cc0b3cb8300fb40d5971ceb268.8
        80202208         80202208        0     1                 $d
        80202228         80202228        9     1         D:\rust\bogokernel\target\riscv64gc-unknown-none-elf\debug\deps\kernel-6d55ed35400b9dc4.8bzhb9fu7en3rtrx7zpckaf8v.10m4h80.rcgu.o:(.rodata..Lanon.5edbc6cc0b3cb8300fb40d5971ceb268.9)
        80202228         80202228        9     1                 .Lanon.5edbc6cc0b3cb8300fb40d5971ceb268.9
        80202228         80202228        0     1                 $d
        80202238         80202238       20     8         D:\rust\bogokernel\target\riscv64gc-unknown-none-elf\debug\deps\kernel-6d55ed35400b9dc4.8bzhb9fu7en3rtrx7zpckaf8v.10m4h80.rcgu.o:(.rodata..Lanon.5edbc6cc0b3cb8300fb40d5971ceb268.10)
        80202238         80202238       20     1                 .Lanon.5edbc6cc0b3cb8300fb40d5971ceb268.10
        80202238         80202238        0     1                 $d
        80202258         80202258        9     1         D:\rust\bogokernel\target\riscv64gc-unknown-none-elf\debug\deps\kernel-6d55ed35400b9dc4.8bzhb9fu7en3rtrx7zpckaf8v.10m4h80.rcgu.o:(.rodata..Lanon.5edbc6cc0b3cb8300fb40d5971ceb268.11)
        80202258         80202258        9     1                 .Lanon.5edbc6cc0b3cb8300fb40d5971ceb268.11
        80202258         80202258        0     1                 $d
        80202261         80202261       25     1         D:\rust\bogokernel\target\riscv64gc-unknown-none-elf\debug\deps\kernel-6d55ed35400b9dc4.8bzhb9fu7en3rtrx7zpckaf8v.10m4h80.rcgu.o:(.rodata..Lanon.5edbc6cc0b3cb8300fb40d5971ceb268.12)
        80202261         80202261       25     1                 .Lanon.5edbc6cc0b3cb8300fb40d5971ceb268.12
        80202261         80202261        0     1                 $d
        80202286         80202286       17     1         D:\rust\bogokernel\target\riscv64gc-unknown-none-elf\debug\deps\kernel-6d55ed35400b9dc4.8bzhb9fu7en3rtrx7zpckaf8v.10m4h80.rcgu.o:(.rodata..Lanon.5edbc6cc0b3cb8300fb40d5971ceb268.13)
        80202286         80202286       17     1                 .Lanon.5edbc6cc0b3cb8300fb40d5971ceb268.13
        80202286         80202286        0     1                 $d
        8020229d         8020229d        3     1         D:\rust\bogokernel\target\riscv64gc-unknown-none-elf\debug\deps\kernel-6d55ed35400b9dc4.8bzhb9fu7en3rtrx7zpckaf8v.10m4h80.rcgu.o:(.rodata..Lanon.5edbc6cc0b3cb8300fb40d5971ceb268.14)
        8020229d         8020229d        3     1                 .Lanon.5edbc6cc0b3cb8300fb40d5971ceb268.14
        8020229d         8020229d        0     1                 $d
        802022a0         802022a0        1     1         D:\rust\bogokernel\target\riscv64gc-unknown-none-elf\debug\deps\kernel-6d55ed35400b9dc4.8bzhb9fu7en3rtrx7zpckaf8v.10m4h80.rcgu.o:(.rodata..Lanon.5edbc6cc0b3cb8300fb40d5971ceb268.15)
        802022a0         802022a0        1     1                 .Lanon.5edbc6cc0b3cb8300fb40d5971ceb268.15
        802022a0         802022a0        0     1                 $d
        802022a8         802022a8       40     8         D:\rust\bogokernel\target\riscv64gc-unknown-none-elf\debug\deps\kernel-6d55ed35400b9dc4.8bzhb9fu7en3rtrx7zpckaf8v.10m4h80.rcgu.o:(.rodata..Lanon.5edbc6cc0b3cb8300fb40d5971ceb268.16)
        802022a8         802022a8       40     1                 .Lanon.5edbc6cc0b3cb8300fb40d5971ceb268.16
        802022a8         802022a8        0     1                 $d
        802022e8         802022e8       20     8         D:\rust\bogokernel\target\riscv64gc-unknown-none-elf\debug\deps\kernel-6d55ed35400b9dc4.8bzhb9fu7en3rtrx7zpckaf8v.10m4h80.rcgu.o:(.rodata..Lanon.5edbc6cc0b3cb8300fb40d5971ceb268.17)
        802022e8         802022e8       20     1                 .Lanon.5edbc6cc0b3cb8300fb40d5971ceb268.17
        802022e8         802022e8        0     1                 $d
        80202308         80202308       27     1         <internal>:(.rodata.str1.1)
        80202330         80202330       18     8         D:\rust\bogokernel\target\riscv64gc-unknown-none-elf\debug\deps\kernel-6d55ed35400b9dc4.8bzhb9fu7en3rtrx7zpckaf8v.10m4h80.rcgu.o:(.rodata..Lanon.5edbc6cc0b3cb8300fb40d5971ceb268.19)
        80202330         80202330       18     1                 .Lanon.5edbc6cc0b3cb8300fb40d5971ceb268.19
        80202330         80202330        0     1                 $d
        80202348         80202348       2e     1         D:\rust\bogokernel\target\riscv64gc-unknown-none-elf\debug\deps\kernel-6d55ed35400b9dc4.8bzhb9fu7en3rtrx7zpckaf8v.10m4h80.rcgu.o:(.rodata..Lanon.5edbc6cc0b3cb8300fb40d5971ceb268.20)
        80202348         80202348       2e     1                 .Lanon.5edbc6cc0b3cb8300fb40d5971ceb268.20
        80202348         80202348        0     1                 $d
        80202378         80202378       10     8         D:\rust\bogokernel\target\riscv64gc-unknown-none-elf\debug\deps\kernel-6d55ed35400b9dc4.8bzhb9fu7en3rtrx7zpckaf8v.10m4h80.rcgu.o:(.rodata..Lanon.5edbc6cc0b3cb8300fb40d5971ceb268.21)
        80202378         80202378       10     1                 .Lanon.5edbc6cc0b3cb8300fb40d5971ceb268.21
        80202378         80202378        0     1                 $d
        80202388         80202388       18     8         D:\rust\bogokernel\target\riscv64gc-unknown-none-elf\debug\deps\kernel-6d55ed35400b9dc4.8bzhb9fu7en3rtrx7zpckaf8v.10m4h80.rcgu.o:(.rodata..Lanon.5edbc6cc0b3cb8300fb40d5971ceb268.23)
        80202388         80202388       18     1                 .Lanon.5edbc6cc0b3cb8300fb40d5971ceb268.23
        80202388         80202388        0     1                 $d
        802023a0         802023a0       18     8         D:\rust\bogokernel\target\riscv64gc-unknown-none-elf\debug\deps\kernel-6d55ed35400b9dc4.8bzhb9fu7en3rtrx7zpckaf8v.10m4h80.rcgu.o:(.rodata..Lanon.5edbc6cc0b3cb8300fb40d5971ceb268.24)
        802023a0         802023a0       18     1                 .Lanon.5edbc6cc0b3cb8300fb40d5971ceb268.24
        802023a0         802023a0        0     1                 $d
        802023b8         802023b8        5     1         D:\rust\bogokernel\target\riscv64gc-unknown-none-elf\debug\deps\kernel-6d55ed35400b9dc4.8bzhb9fu7en3rtrx7zpckaf8v.10m4h80.rcgu.o:(.rodata..Lanon.5edbc6cc0b3cb8300fb40d5971ceb268.25)
        802023b8         802023b8        5     1                 .Lanon.5edbc6cc0b3cb8300fb40d5971ceb268.25
        802023b8         802023b8        0     1                 $d
        802023c0         802023c0       20     8         D:\rust\bogokernel\target\riscv64gc-unknown-none-elf\debug\deps\kernel-6d55ed35400b9dc4.8bzhb9fu7en3rtrx7zpckaf8v.10m4h80.rcgu.o:(.rodata..Lanon.5edbc6cc0b3cb8300fb40d5971ceb268.26)
        802023c0         802023c0       20     1                 .Lanon.5edbc6cc0b3cb8300fb40d5971ceb268.26
        802023c0         802023c0        0     1                 $d
        802023e0         802023e0       18     8         D:\rust\bogokernel\target\riscv64gc-unknown-none-elf\debug\deps\kernel-6d55ed35400b9dc4.8bzhb9fu7en3rtrx7zpckaf8v.10m4h80.rcgu.o:(.rodata..Lanon.5edbc6cc0b3cb8300fb40d5971ceb268.27)
        802023e0         802023e0       18     1                 .Lanon.5edbc6cc0b3cb8300fb40d5971ceb268.27
        802023e0         802023e0        0     1                 $d
        802023f8         802023f8       30     8         D:\rust\bogokernel\target\riscv64gc-unknown-none-elf\debug\deps\kernel-6d55ed35400b9dc4.8bzhb9fu7en3rtrx7zpckaf8v.10m4h80.rcgu.o:(.rodata..Lanon.5edbc6cc0b3cb8300fb40d5971ceb268.28)
        802023f8         802023f8       30     1                 .Lanon.5edbc6cc0b3cb8300fb40d5971ceb268.28
        802023f8         802023f8        0     1                 $d
        80202428         80202428        e     1         D:\rust\bogokernel\target\riscv64gc-unknown-none-elf\debug\deps\kernel-6d55ed35400b9dc4.8bzhb9fu7en3rtrx7zpckaf8v.10m4h80.rcgu.o:(.rodata..Lanon.5edbc6cc0b3cb8300fb40d5971ceb268.30)
        80202428         80202428        e     1                 .Lanon.5edbc6cc0b3cb8300fb40d5971ceb268.30
        80202428         80202428        0     1                 $d
        80202436         80202436        9     1         D:\rust\bogokernel\target\riscv64gc-unknown-none-elf\debug\deps\kernel-6d55ed35400b9dc4.8bzhb9fu7en3rtrx7zpckaf8v.10m4h80.rcgu.o:(.rodata..Lanon.5edbc6cc0b3cb8300fb40d5971ceb268.31)
        80202436         80202436        9     1                 .Lanon.5edbc6cc0b3cb8300fb40d5971ceb268.31
        80202436         80202436        0     1                 $d
        8020243f         8020243f        f     1         D:\rust\bogokernel\target\riscv64gc-unknown-none-elf\debug\deps\kernel-6d55ed35400b9dc4.8bzhb9fu7en3rtrx7zpckaf8v.10m4h80.rcgu.o:(.rodata..Lanon.5edbc6cc0b3cb8300fb40d5971ceb268.32)
        8020243f         8020243f        f     1                 .Lanon.5edbc6cc0b3cb8300fb40d5971ceb268.32
        8020243f         8020243f        0     1                 $d
        8020244e         8020244e        c     1         D:\rust\bogokernel\target\riscv64gc-unknown-none-elf\debug\deps\kernel-6d55ed35400b9dc4.8bzhb9fu7en3rtrx7zpckaf8v.10m4h80.rcgu.o:(.rodata..Lanon.5edbc6cc0b3cb8300fb40d5971ceb268.33)
        8020244e         8020244e        c     1                 .Lanon.5edbc6cc0b3cb8300fb40d5971ceb268.33
        8020244e         8020244e        0     1                 $d
        8020245a         8020245a       12     1         D:\rust\bogokernel\target\riscv64gc-unknown-none-elf\debug\deps\kernel-6d55ed35400b9dc4.8bzhb9fu7en3rtrx7zpckaf8v.10m4h80.rcgu.o:(.rodata..Lanon.5edbc6cc0b3cb8300fb40d5971ceb268.34)
        8020245a         8020245a       12     1                 .Lanon.5edbc6cc0b3cb8300fb40d5971ceb268.34
        8020245a         8020245a        0     1                 $d
        8020246c         8020246c        7     1         D:\rust\bogokernel\target\riscv64gc-unknown-none-elf\debug\deps\kernel-6d55ed35400b9dc4.8bzhb9fu7en3rtrx7zpckaf8v.10m4h80.rcgu.o:(.rodata..Lanon.5edbc6cc0b3cb8300fb40d5971ceb268.35)
        8020246c         8020246c        7     1                 .Lanon.5edbc6cc0b3cb8300fb40d5971ceb268.35
        8020246c         8020246c        0     1                 $d
        80202473         80202473       15     1         D:\rust\bogokernel\target\riscv64gc-unknown-none-elf\debug\deps\kernel-6d55ed35400b9dc4.8bzhb9fu7en3rtrx7zpckaf8v.10m4h80.rcgu.o:(.rodata..Lanon.5edbc6cc0b3cb8300fb40d5971ceb268.36)
        80202473         80202473       15     1                 .Lanon.5edbc6cc0b3cb8300fb40d5971ceb268.36
        80202473         80202473        0     1                 $d
        80202488         80202488       12     1         D:\rust\bogokernel\target\riscv64gc-unknown-none-elf\debug\deps\kernel-6d55ed35400b9dc4.8bzhb9fu7en3rtrx7zpckaf8v.10m4h80.rcgu.o:(.rodata..Lanon.5edbc6cc0b3cb8300fb40d5971ceb268.38)
        80202488         80202488       12     1                 .Lanon.5edbc6cc0b3cb8300fb40d5971ceb268.38
        80202488         80202488        0     1                 $d
        8020249a         8020249a        a     1         D:\rust\bogokernel\target\riscv64gc-unknown-none-elf\debug\deps\kernel-6d55ed35400b9dc4.8bzhb9fu7en3rtrx7zpckaf8v.10m4h80.rcgu.o:(.rodata..Lanon.5edbc6cc0b3cb8300fb40d5971ceb268.39)
        8020249a         8020249a        a     1                 .Lanon.5edbc6cc0b3cb8300fb40d5971ceb268.39
        8020249a         8020249a        0     1                 $d
        802024a4         802024a4        9     1         D:\rust\bogokernel\target\riscv64gc-unknown-none-elf\debug\deps\kernel-6d55ed35400b9dc4.8bzhb9fu7en3rtrx7zpckaf8v.10m4h80.rcgu.o:(.rodata..Lanon.5edbc6cc0b3cb8300fb40d5971ceb268.40)
        802024a4         802024a4        9     1                 .Lanon.5edbc6cc0b3cb8300fb40d5971ceb268.40
        802024a4         802024a4        0     1                 $d
        802024ad         802024ad        f     1         D:\rust\bogokernel\target\riscv64gc-unknown-none-elf\debug\deps\kernel-6d55ed35400b9dc4.8bzhb9fu7en3rtrx7zpckaf8v.10m4h80.rcgu.o:(.rodata..Lanon.5edbc6cc0b3cb8300fb40d5971ceb268.41)
        802024ad         802024ad        f     1                 .Lanon.5edbc6cc0b3cb8300fb40d5971ceb268.41
        802024ad         802024ad        0     1                 $d
        802024bc         802024bc        a     1         D:\rust\bogokernel\target\riscv64gc-unknown-none-elf\debug\deps\kernel-6d55ed35400b9dc4.8bzhb9fu7en3rtrx7zpckaf8v.10m4h80.rcgu.o:(.rodata..Lanon.5edbc6cc0b3cb8300fb40d5971ceb268.42)
        802024bc         802024bc        a     1                 .Lanon.5edbc6cc0b3cb8300fb40d5971ceb268.42
        802024bc         802024bc        0     1                 $d
        802024c6         802024c6        b     1         D:\rust\bogokernel\target\riscv64gc-unknown-none-elf\debug\deps\kernel-6d55ed35400b9dc4.8bzhb9fu7en3rtrx7zpckaf8v.10m4h80.rcgu.o:(.rodata..Lanon.5edbc6cc0b3cb8300fb40d5971ceb268.43)
        802024c6         802024c6        b     1                 .Lanon.5edbc6cc0b3cb8300fb40d5971ceb268.43
        802024c6         802024c6        0     1                 $d
        802024d1         802024d1       14     1         D:\rust\bogokernel\target\riscv64gc-unknown-none-elf\debug\deps\kernel-6d55ed35400b9dc4.8bzhb9fu7en3rtrx7zpckaf8v.10m4h80.rcgu.o:(.rodata..Lanon.5edbc6cc0b3cb8300fb40d5971ceb268.44)
        802024d1         802024d1       14     1                 .Lanon.5edbc6cc0b3cb8300fb40d5971ceb268.44
        802024d1         802024d1        0     1                 $d
        802024e5         802024e5        d     1         D:\rust\bogokernel\target\riscv64gc-unknown-none-elf\debug\deps\kernel-6d55ed35400b9dc4.8bzhb9fu7en3rtrx7zpckaf8v.10m4h80.rcgu.o:(.rodata..Lanon.5edbc6cc0b3cb8300fb40d5971ceb268.45)
        802024e5         802024e5        d     1                 .Lanon.5edbc6cc0b3cb8300fb40d5971ceb268.45
        802024e5         802024e5        0     1                 $d
        802024f2         802024f2        e     1         D:\rust\bogokernel\target\riscv64gc-unknown-none-elf\debug\deps\kernel-6d55ed35400b9dc4.8bzhb9fu7en3rtrx7zpckaf8v.10m4h80.rcgu.o:(.rodata..Lanon.5edbc6cc0b3cb8300fb40d5971ceb268.46)
        802024f2         802024f2        e     1                 .Lanon.5edbc6cc0b3cb8300fb40d5971ceb268.46
        802024f2         802024f2        0     1                 $d
        80202500         80202500       38     8         D:\rust\bogokernel\target\riscv64gc-unknown-none-elf\debug\deps\kernel-6d55ed35400b9dc4.8bzhb9fu7en3rtrx7zpckaf8v.10m4h80.rcgu.o:(.rodata..Lswitch.table._ZN42_$LT$$RF$T$u20$as$u20$core..fmt..Debug$GT$3fmt17hc924d3c0ccf2f6a5E)
        80202500         80202500       38     1                 .Lswitch.table._ZN42_$LT$$RF$T$u20$as$u20$core..fmt..Debug$GT$3fmt17hc924d3c0ccf2f6a5E
        80202500         80202500        0     1                 $d
        80202538         80202538       38     8         D:\rust\bogokernel\target\riscv64gc-unknown-none-elf\debug\deps\kernel-6d55ed35400b9dc4.8bzhb9fu7en3rtrx7zpckaf8v.10m4h80.rcgu.o:(.rodata..Lswitch.table._ZN42_$LT$$RF$T$u20$as$u20$core..fmt..Debug$GT$3fmt17hc924d3c0ccf2f6a5E.1)
        80202538         80202538       38     1                 .Lswitch.table._ZN42_$LT$$RF$T$u20$as$u20$core..fmt..Debug$GT$3fmt17hc924d3c0ccf2f6a5E.1
        80202538         80202538        0     1                 $d
        80202570         80202570       60     8         D:\rust\bogokernel\target\riscv64gc-unknown-none-elf\debug\deps\kernel-6d55ed35400b9dc4.8bzhb9fu7en3rtrx7zpckaf8v.10m4h80.rcgu.o:(.rodata..Lswitch.table._ZN42_$LT$$RF$T$u20$as$u20$core..fmt..Debug$GT$3fmt17h8a3ef0349bc2fee8E)
        80202570         80202570       60     1                 .Lswitch.table._ZN42_$LT$$RF$T$u20$as$u20$core..fmt..Debug$GT$3fmt17h8a3ef0349bc2fee8E
        80202570         80202570        0     1                 $d
        802025d0         802025d0       60     8         D:\rust\bogokernel\target\riscv64gc-unknown-none-elf\debug\deps\kernel-6d55ed35400b9dc4.8bzhb9fu7en3rtrx7zpckaf8v.10m4h80.rcgu.o:(.rodata..Lswitch.table._ZN42_$LT$$RF$T$u20$as$u20$core..fmt..Debug$GT$3fmt17h8a3ef0349bc2fee8E.2)
        802025d0         802025d0       60     1                 .Lswitch.table._ZN42_$LT$$RF$T$u20$as$u20$core..fmt..Debug$GT$3fmt17h8a3ef0349bc2fee8E.2
        802025d0         802025d0        0     1                 $d
        80202630         80202630        4     4         <internal>:(.rodata.cst4)
        80202634         80202634        2     1         C:\Users\Magnus\.rustup\toolchains\nightly-x86_64-pc-windows-msvc\lib\rustlib\riscv64gc-unknown-none-elf\lib\libcore-6873ca3f970f9a34.rlib(core-6873ca3f970f9a34.core.d22cbba136389eb0-cgu.0.rcgu.o):(.rodata..Lanon.50ee8e01dade3b246969337727d8daaa.2)
        80202634         80202634        2     1                 .Lanon.50ee8e01dade3b246969337727d8daaa.2
        80202634         80202634        0     1                 $d
        80202636         80202636       c8     1         C:\Users\Magnus\.rustup\toolchains\nightly-x86_64-pc-windows-msvc\lib\rustlib\riscv64gc-unknown-none-elf\lib\libcore-6873ca3f970f9a34.rlib(core-6873ca3f970f9a34.core.d22cbba136389eb0-cgu.0.rcgu.o):(.rodata..Lanon.50ee8e01dade3b246969337727d8daaa.23)
        80202636         80202636       c8     1                 .Lanon.50ee8e01dade3b246969337727d8daaa.23
        80202636         80202636        0     1                 $d
        80202700         80202700       30     8         C:\Users\Magnus\.rustup\toolchains\nightly-x86_64-pc-windows-msvc\lib\rustlib\riscv64gc-unknown-none-elf\lib\libcore-6873ca3f970f9a34.rlib(core-6873ca3f970f9a34.core.d22cbba136389eb0-cgu.0.rcgu.o):(.rodata..Lanon.50ee8e01dade3b246969337727d8daaa.67)
        80202700         80202700       30     1                 .Lanon.50ee8e01dade3b246969337727d8daaa.67
        80202700         80202700        0     1                 $d
        80202730         80202730        1     1         C:\Users\Magnus\.rustup\toolchains\nightly-x86_64-pc-windows-msvc\lib\rustlib\riscv64gc-unknown-none-elf\lib\libcore-6873ca3f970f9a34.rlib(core-6873ca3f970f9a34.core.d22cbba136389eb0-cgu.0.rcgu.o):(.rodata..Lanon.50ee8e01dade3b246969337727d8daaa.71)
        80202730         80202730        1     1                 .Lanon.50ee8e01dade3b246969337727d8daaa.71
        80202730         80202730        0     1                 $d
        80202731         80202731        1     1         C:\Users\Magnus\.rustup\toolchains\nightly-x86_64-pc-windows-msvc\lib\rustlib\riscv64gc-unknown-none-elf\lib\libcore-6873ca3f970f9a34.rlib(core-6873ca3f970f9a34.core.d22cbba136389eb0-cgu.0.rcgu.o):(.rodata..Lanon.50ee8e01dade3b246969337727d8daaa.75)
        80202731         80202731        1     1                 .Lanon.50ee8e01dade3b246969337727d8daaa.75
        80202731         80202731        0     1                 $d
        80202732         80202732        2     1         C:\Users\Magnus\.rustup\toolchains\nightly-x86_64-pc-windows-msvc\lib\rustlib\riscv64gc-unknown-none-elf\lib\libcore-6873ca3f970f9a34.rlib(core-6873ca3f970f9a34.core.d22cbba136389eb0-cgu.0.rcgu.o):(.rodata..Lanon.50ee8e01dade3b246969337727d8daaa.77)
        80202732         80202732        2     1                 .Lanon.50ee8e01dade3b246969337727d8daaa.77
        80202732         80202732        0     1                 $d
        80202734         80202734        2     1         C:\Users\Magnus\.rustup\toolchains\nightly-x86_64-pc-windows-msvc\lib\rustlib\riscv64gc-unknown-none-elf\lib\libcore-6873ca3f970f9a34.rlib(core-6873ca3f970f9a34.core.d22cbba136389eb0-cgu.0.rcgu.o):(.rodata..Lanon.50ee8e01dade3b246969337727d8daaa.78)
        80202734         80202734        2     1                 .Lanon.50ee8e01dade3b246969337727d8daaa.78
        80202734         80202734        0     1                 $d
        80202736         80202736        1     1         C:\Users\Magnus\.rustup\toolchains\nightly-x86_64-pc-windows-msvc\lib\rustlib\riscv64gc-unknown-none-elf\lib\libcore-6873ca3f970f9a34.rlib(core-6873ca3f970f9a34.core.d22cbba136389eb0-cgu.0.rcgu.o):(.rodata..Lanon.50ee8e01dade3b246969337727d8daaa.91)
        80202736         80202736        1     1                 .Lanon.50ee8e01dade3b246969337727d8daaa.91
        80202736         80202736        0     1                 $d
        80202737         80202737       1c     1         C:\Users\Magnus\.rustup\toolchains\nightly-x86_64-pc-windows-msvc\lib\rustlib\riscv64gc-unknown-none-elf\lib\libcore-6873ca3f970f9a34.rlib(core-6873ca3f970f9a34.core.d22cbba136389eb0-cgu.0.rcgu.o):(.rodata..Lanon.50ee8e01dade3b246969337727d8daaa.431)
        80202737         80202737       1c     1                 .Lanon.50ee8e01dade3b246969337727d8daaa.431
        80202737         80202737        0     1                 $d
        80202758         80202758       10     8         C:\Users\Magnus\.rustup\toolchains\nightly-x86_64-pc-windows-msvc\lib\rustlib\riscv64gc-unknown-none-elf\lib\libcore-6873ca3f970f9a34.rlib(core-6873ca3f970f9a34.core.d22cbba136389eb0-cgu.0.rcgu.o):(.rodata..Lanon.50ee8e01dade3b246969337727d8daaa.432)
        80202758         80202758       10     1                 .Lanon.50ee8e01dade3b246969337727d8daaa.432
        80202758         80202758        0     1                 $d
        80202768         80202768      398     8 .eh_frame
        80202768         80202768       14     1         C:\Users\Magnus\.rustup\toolchains\nightly-x86_64-pc-windows-msvc\lib\rustlib\riscv64gc-unknown-none-elf\lib\libcore-6873ca3f970f9a34.rlib(core-6873ca3f970f9a34.core.d22cbba136389eb0-cgu.0.rcgu.o):(.eh_frame+0x0)
        8020277c         8020277c       2c     1         C:\Users\Magnus\.rustup\toolchains\nightly-x86_64-pc-windows-msvc\lib\rustlib\riscv64gc-unknown-none-elf\lib\libcore-6873ca3f970f9a34.rlib(core-6873ca3f970f9a34.core.d22cbba136389eb0-cgu.0.rcgu.o):(.eh_frame+0x1f8)
        802027a8         802027a8       30     1         C:\Users\Magnus\.rustup\toolchains\nightly-x86_64-pc-windows-msvc\lib\rustlib\riscv64gc-unknown-none-elf\lib\libcore-6873ca3f970f9a34.rlib(core-6873ca3f970f9a34.core.d22cbba136389eb0-cgu.0.rcgu.o):(.eh_frame+0x65c)
        802027d8         802027d8       2c     1         C:\Users\Magnus\.rustup\toolchains\nightly-x86_64-pc-windows-msvc\lib\rustlib\riscv64gc-unknown-none-elf\lib\libcore-6873ca3f970f9a34.rlib(core-6873ca3f970f9a34.core.d22cbba136389eb0-cgu.0.rcgu.o):(.eh_frame+0x95c)
        80202804         80202804       3c     1         C:\Users\Magnus\.rustup\toolchains\nightly-x86_64-pc-windows-msvc\lib\rustlib\riscv64gc-unknown-none-elf\lib\libcore-6873ca3f970f9a34.rlib(core-6873ca3f970f9a34.core.d22cbba136389eb0-cgu.0.rcgu.o):(.eh_frame+0xa50)
        80202840         80202840       94     1         C:\Users\Magnus\.rustup\toolchains\nightly-x86_64-pc-windows-msvc\lib\rustlib\riscv64gc-unknown-none-elf\lib\libcore-6873ca3f970f9a34.rlib(core-6873ca3f970f9a34.core.d22cbba136389eb0-cgu.0.rcgu.o):(.eh_frame+0xb54)
        802028d4         802028d4       64     1         C:\Users\Magnus\.rustup\toolchains\nightly-x86_64-pc-windows-msvc\lib\rustlib\riscv64gc-unknown-none-elf\lib\libcore-6873ca3f970f9a34.rlib(core-6873ca3f970f9a34.core.d22cbba136389eb0-cgu.0.rcgu.o):(.eh_frame+0xc90)
        80202938         80202938       14     1         C:\Users\Magnus\.rustup\toolchains\nightly-x86_64-pc-windows-msvc\lib\rustlib\riscv64gc-unknown-none-elf\lib\libcore-6873ca3f970f9a34.rlib(core-6873ca3f970f9a34.core.d22cbba136389eb0-cgu.0.rcgu.o):(.eh_frame+0xfcc)
        8020294c         8020294c       44     1         C:\Users\Magnus\.rustup\toolchains\nightly-x86_64-pc-windows-msvc\lib\rustlib\riscv64gc-unknown-none-elf\lib\libcore-6873ca3f970f9a34.rlib(core-6873ca3f970f9a34.core.d22cbba136389eb0-cgu.0.rcgu.o):(.eh_frame+0x1218)
        80202990         80202990       88     1         C:\Users\Magnus\.rustup\toolchains\nightly-x86_64-pc-windows-msvc\lib\rustlib\riscv64gc-unknown-none-elf\lib\libcore-6873ca3f970f9a34.rlib(core-6873ca3f970f9a34.core.d22cbba136389eb0-cgu.0.rcgu.o):(.eh_frame+0x1270)
        80202a18         80202a18       14     1         C:\Users\Magnus\.rustup\toolchains\nightly-x86_64-pc-windows-msvc\lib\rustlib\riscv64gc-unknown-none-elf\lib\libcore-6873ca3f970f9a34.rlib(core-6873ca3f970f9a34.core.d22cbba136389eb0-cgu.0.rcgu.o):(.eh_frame+0x1610)
        80202a2c         80202a2c       4c     1         C:\Users\Magnus\.rustup\toolchains\nightly-x86_64-pc-windows-msvc\lib\rustlib\riscv64gc-unknown-none-elf\lib\libcore-6873ca3f970f9a34.rlib(core-6873ca3f970f9a34.core.d22cbba136389eb0-cgu.0.rcgu.o):(.eh_frame+0x1654)
        80202a78         80202a78       44     1         C:\Users\Magnus\.rustup\toolchains\nightly-x86_64-pc-windows-msvc\lib\rustlib\riscv64gc-unknown-none-elf\lib\libcore-6873ca3f970f9a34.rlib(core-6873ca3f970f9a34.core.d22cbba136389eb0-cgu.0.rcgu.o):(.eh_frame+0x193c)
        80202abc         80202abc       20     1         C:\Users\Magnus\.rustup\toolchains\nightly-x86_64-pc-windows-msvc\lib\rustlib\riscv64gc-unknown-none-elf\lib\libcore-6873ca3f970f9a34.rlib(core-6873ca3f970f9a34.core.d22cbba136389eb0-cgu.0.rcgu.o):(.eh_frame+0x42ec)
        80202adc         80202adc       20     1         C:\Users\Magnus\.rustup\toolchains\nightly-x86_64-pc-windows-msvc\lib\rustlib\riscv64gc-unknown-none-elf\lib\libcore-6873ca3f970f9a34.rlib(core-6873ca3f970f9a34.core.d22cbba136389eb0-cgu.0.rcgu.o):(.eh_frame+0x4cf0)
        80203000         80203000     2000  4096 .bss
        80203000         80203000        0     1         __bss_start = .
        80203000         80203000     1000    16         D:\rust\bogokernel\target\riscv64gc-unknown-none-elf\debug\deps\kernel-6d55ed35400b9dc4.8bzhb9fu7en3rtrx7zpckaf8v.10m4h80.rcgu.o:(.bss.USER_STACK)
        80203000         80203000        0     1                 $d
        80203000         80203000     1000     1                 USER_STACK
        80204000         80204000        8     8         D:\rust\bogokernel\target\riscv64gc-unknown-none-elf\debug\deps\kernel-6d55ed35400b9dc4.8bzhb9fu7en3rtrx7zpckaf8v.10m4h80.rcgu.o:(.bss._ZN6kernel5timer5TICKS17h00d335d518639c4cE)
        80204000         80204000        8     1                 kernel::timer::TICKS::h00d335d518639c4c
        80204000         80204000        0     1                 $d
        80204008         80204008      ff8     1         . = ALIGN(4K)
        80205000         80205000        0     1         __bss_end = .
        80205000         80205000  7dfb000     1 . = ORIGIN(RAM) + LENGTH(RAM)
        88000000         88000000        0     1 _stack_top = .
        88000000         88000000        0     1 __heap_start = __bss_end
        88000000         88000000        0     1 __heap_end = _stack_top - 0x10000
               0                0     1e78     1 .debug_loc
               0                0     1e78     1         D:\rust\bogokernel\target\riscv64gc-unknown-none-elf\debug\deps\kernel-6d55ed35400b9dc4.8bzhb9fu7en3rtrx7zpckaf8v.10m4h80.rcgu.o:(.debug_loc)
               0                0        0     1                 .L0 
               0                0        0     1                 $d
              92               92        0     1                 .L0 
              c5               c5        0     1                 .L0 
             130              130        0     1                 .L0 
             19b              19b        0     1                 .L0 
             1d0              1d0        0     1                 .L0 
             205              205        0     1                 .L0 
             270              270        0     1                 .L0 
             2db              2db        0     1                 .L0 
             310              310        0     1                 .L0 
             345              345        0     1                 .L0 
             378              378        0     1                 .L0 
             3be              3be        0     1                 .L0 
             3f7              3f7        0     1                 .L0 
             42b              42b        0     1                 .L0 
             45f              45f        0     1                 .L0 
             492              492        0     1                 .L0 
             4c5              4c5        0     1                 .L0 
             4f8              4f8        0     1                 .L0 
             52b              52b        0     1                 .L0 
             5bb              5bb        0     1                 .L0 
             64b              64b        0     1                 .L0 
             680              680        0     1                 .L0 
             6b5              6b5        0     1                 .L0 
             79c              79c        0     1                 .L0 
             883              883        0     1                 .L0 
             8b8              8b8        0     1                 .L0 
             8ed              8ed        0     1                 .L0 
             920              920        0     1                 .L0 
             966              966        0     1                 .L0 
             9aa              9aa        0     1                 .L0 
             9ee              9ee        0     1                 .L0 
             a27              a27        0     1                 .L0 
             a60              a60        0     1                 .L0 
             a95              a95        0     1                 .L0 
             adb              adb        0     1                 .L0 
             b21              b21        0     1                 .L0 
             b65              b65        0     1                 .L0 
             ba9              ba9        0     1                 .L0 
             be1              be1        0     1                 .L0 
             c19              c19        0     1                 .L0 
             c4e              c4e        0     1                 .L0 
             c81              c81        0     1                 .L0 
             cb4              cb4        0     1                 .L0 
             d0e              d0e        0     1                 .L0 
             d68              d68        0     1                 .L0 
             d9e              d9e        0     1                 .L0 
             dd4              dd4        0     1                 .L0 
             e64              e64        0     1                 .L0 
             ef4              ef4        0     1                 .L0 
             f2a              f2a        0     1                 .L0 
             f60              f60        0     1                 .L0 
             f93              f93        0     1                 .L0 
             fc6              fc6        0     1                 .L0 
            1004             1004        0     1                 .L0 
            1037             1037        0     1                 .L0 
            106a             106a        0     1                 .L0 
            109d             109d        0     1                 .L0 
            10d0             10d0        0     1                 .L0 
            1103             1103        0     1                 .L0 
            1136             1136        0     1                 .L0 
            1169             1169        0     1                 .L0 
            11af             11af        0     1                 .L0 
            11e2             11e2        0     1                 .L0 
            1216             1216        0     1                 .L0 
            124a             124a        0     1                 .L0 
            12b6             12b6        0     1                 .L0 
            1322             1322        0     1                 .L0 
            1378             1378        0     1                 .L0 
            13ce             13ce        0     1                 .L0 
            143a             143a        0     1                 .L0 
            1493             1493        0     1                 .L0 
            14ff             14ff        0     1                 .L0 
            157e             157e        0     1                 .L0 
            15ea             15ea        0     1                 .L0 
            165e             165e        0     1                 .L0 
            16ce             16ce        0     1                 .L0 
            171f             171f        0     1                 .L0 
            1770             1770        0     1                 .L0 
            17d6             17d6        0     1                 .L0 
            181c             181c        0     1                 .L0 
            1869             1869        0     1                 .L0 
            18b6             18b6        0     1                 .L0 
            191c             191c        0     1                 .L0 
            1962             1962        0     1                 .L0 
            1afb             1afb        0     1                 .L0 
            1c94             1c94        0     1                 .L0 
            1cc7             1cc7        0     1                 .L0 
            1d0d             1d0d        0     1                 .L0 
            1d40             1d40        0     1                 .L0 
            1d73             1d73        0     1                 .L0 
            1db9             1db9        0     1                 .L0 
            1dec             1dec        0     1                 .L0 
            1e1f             1e1f        0     1                 .L0 
               0                0      cbf     1 .debug_abbrev
               0                0      3f2     1         D:\rust\bogokernel\target\riscv64gc-unknown-none-elf\debug\deps\kernel-6d55ed35400b9dc4.8bzhb9fu7en3rtrx7zpckaf8v.10m4h80.rcgu.o:(.debug_abbrev)
               0                0        0     1                 $d
             3f2              3f2      2f9     1         C:\Users\Magnus\.rustup\toolchains\nightly-x86_64-pc-windows-msvc\lib\rustlib\riscv64gc-unknown-none-elf\lib\libcore-6873ca3f970f9a34.rlib(core-6873ca3f970f9a34.core.d22cbba136389eb0-cgu.0.rcgu.o):(.debug_abbrev)
             3f2              3f2        0     1                 $d
             6eb              6eb       ac     1         C:\Users\Magnus\.rustup\toolchains\nightly-x86_64-pc-windows-msvc\lib\rustlib\riscv64gc-unknown-none-elf\lib\libcompiler_builtins-68e6dafd27578d1b.rlib(compiler_builtins-68e6dafd27578d1b.compiler_builtins.28f9de005c366824-cgu.158.rcgu.o):(.debug_abbrev)
             6eb              6eb        0     1                 $d
             797              797       7b     1         C:\Users\Magnus\.rustup\toolchains\nightly-x86_64-pc-windows-msvc\lib\rustlib\riscv64gc-unknown-none-elf\lib\libcompiler_builtins-68e6dafd27578d1b.rlib(compiler_builtins-68e6dafd27578d1b.compiler_builtins.28f9de005c366824-cgu.207.rcgu.o):(.debug_abbrev)
             797              797        0     1                 $d
             812              812       db     1         C:\Users\Magnus\.rustup\toolchains\nightly-x86_64-pc-windows-msvc\lib\rustlib\riscv64gc-unknown-none-elf\lib\libcompiler_builtins-68e6dafd27578d1b.rlib(compiler_builtins-68e6dafd27578d1b.compiler_builtins.28f9de005c366824-cgu.223.rcgu.o):(.debug_abbrev)
             812              812        0     1                 $d
             8ed              8ed       5f     1         C:\Users\Magnus\.rustup\toolchains\nightly-x86_64-pc-windows-msvc\lib\rustlib\riscv64gc-unknown-none-elf\lib\libcompiler_builtins-68e6dafd27578d1b.rlib(compiler_builtins-68e6dafd27578d1b.compiler_builtins.28f9de005c366824-cgu.247.rcgu.o):(.debug_abbrev)
             8ed              8ed        0     1                 $d
             94c              94c      11a     1         C:\Users\Magnus\.rustup\toolchains\nightly-x86_64-pc-windows-msvc\lib\rustlib\riscv64gc-unknown-none-elf\lib\libcompiler_builtins-68e6dafd27578d1b.rlib(compiler_builtins-68e6dafd27578d1b.compiler_builtins.28f9de005c366824-cgu.013.rcgu.o):(.debug_abbrev)
             94c              94c        0     1                 $d
             a66              a66       2e     1         C:\Users\Magnus\.rustup\toolchains\nightly-x86_64-pc-windows-msvc\lib\rustlib\riscv64gc-unknown-none-elf\lib\libcompiler_builtins-68e6dafd27578d1b.rlib(compiler_builtins-68e6dafd27578d1b.compiler_builtins.28f9de005c366824-cgu.323.rcgu.o):(.debug_abbrev)
             a66              a66        0     1                 $d
             a94              a94      142     1         C:\Users\Magnus\.rustup\toolchains\nightly-x86_64-pc-windows-msvc\lib\rustlib\riscv64gc-unknown-none-elf\lib\libcompiler_builtins-68e6dafd27578d1b.rlib(compiler_builtins-68e6dafd27578d1b.compiler_builtins.28f9de005c366824-cgu.008.rcgu.o):(.debug_abbrev)
             a94              a94        0     1                 $d
             bd6              bd6       e9     1         C:\Users\Magnus\.rustup\toolchains\nightly-x86_64-pc-windows-msvc\lib\rustlib\riscv64gc-unknown-none-elf\lib\libcompiler_builtins-68e6dafd27578d1b.rlib(compiler_builtins-68e6dafd27578d1b.compiler_builtins.28f9de005c366824-cgu.343.rcgu.o):(.debug_abbrev)
             bd6              bd6        0     1                 $d
               0                0    2a53d     1 .debug_info
               0                0     2d84     1         D:\rust\bogokernel\target\riscv64gc-unknown-none-elf\debug\deps\kernel-6d55ed35400b9dc4.8bzhb9fu7en3rtrx7zpckaf8v.10m4h80.rcgu.o:(.debug_info)
               0                0        0     1                 .L0 
               0                0        0     1                 $d
            2d84             2d84    24ffa     1         C:\Users\Magnus\.rustup\toolchains\nightly-x86_64-pc-windows-msvc\lib\rustlib\riscv64gc-unknown-none-elf\lib\libcore-6873ca3f970f9a34.rlib(core-6873ca3f970f9a34.core.d22cbba136389eb0-cgu.0.rcgu.o):(.debug_info)
            2d84             2d84        0     1                 .L0 
            2d84             2d84        0     1                 $d
           27d7e            27d7e      3de     1         C:\Users\Magnus\.rustup\toolchains\nightly-x86_64-pc-windows-msvc\lib\rustlib\riscv64gc-unknown-none-elf\lib\libcompiler_builtins-68e6dafd27578d1b.rlib(compiler_builtins-68e6dafd27578d1b.compiler_builtins.28f9de005c366824-cgu.158.rcgu.o):(.debug_info)
           27d7e            27d7e        0     1                 .L0 
           27d7e            27d7e        0     1                 $d
           2815c            2815c       b9     1         C:\Users\Magnus\.rustup\toolchains\nightly-x86_64-pc-windows-msvc\lib\rustlib\riscv64gc-unknown-none-elf\lib\libcompiler_builtins-68e6dafd27578d1b.rlib(compiler_builtins-68e6dafd27578d1b.compiler_builtins.28f9de005c366824-cgu.207.rcgu.o):(.debug_info)
           2815c            2815c        0     1                 .L0 
           2815c            2815c        0     1                 $d
           28215            28215      452     1         C:\Users\Magnus\.rustup\toolchains\nightly-x86_64-pc-windows-msvc\lib\rustlib\riscv64gc-unknown-none-elf\lib\libcompiler_builtins-68e6dafd27578d1b.rlib(compiler_builtins-68e6dafd27578d1b.compiler_builtins.28f9de005c366824-cgu.223.rcgu.o):(.debug_info)
           28215            28215        0     1                 .L0 
           28215            28215        0     1                 $d
           28667            28667       ad     1         C:\Users\Magnus\.rustup\toolchains\nightly-x86_64-pc-windows-msvc\lib\rustlib\riscv64gc-unknown-none-elf\lib\libcompiler_builtins-68e6dafd27578d1b.rlib(compiler_builtins-68e6dafd27578d1b.compiler_builtins.28f9de005c366824-cgu.247.rcgu.o):(.debug_info)
           28667            28667        0     1                 .L0 
           28667            28667        0     1                 $d
           28714            28714      555     1         C:\Users\Magnus\.rustup\toolchains\nightly-x86_64-pc-windows-msvc\lib\rustlib\riscv64gc-unknown-none-elf\lib\libcompiler_builtins-68e6dafd27578d1b.rlib(compiler_builtins-68e6dafd27578d1b.compiler_builtins.28f9de005c366824-cgu.013.rcgu.o):(.debug_info)
           28714            28714        0     1                 .L0 
           28714            28714        0     1                 $d
           28c69            28c69       53     1         C:\Users\Magnus\.rustup\toolchains\nightly-x86_64-pc-windows-msvc\lib\rustlib\riscv64gc-unknown-none-elf\lib\libcompiler_builtins-68e6dafd27578d1b.rlib(compiler_builtins-68e6dafd27578d1b.compiler_builtins.28f9de005c366824-cgu.323.rcgu.o):(.debug_info)
           28c69            28c69        0     1                 .L0 
           28c69            28c69        0     1                 $d
           28cbc            28cbc     1596     1         C:\Users\Magnus\.rustup\toolchains\nightly-x86_64-pc-windows-msvc\lib\rustlib\riscv64gc-unknown-none-elf\lib\libcompiler_builtins-68e6dafd27578d1b.rlib(compiler_builtins-68e6dafd27578d1b.compiler_builtins.28f9de005c366824-cgu.008.rcgu.o):(.debug_info)
           28cbc            28cbc        0     1                 .L0 
           28cbc            28cbc        0     1                 $d
           2a252            2a252      2eb     1         C:\Users\Magnus\.rustup\toolchains\nightly-x86_64-pc-windows-msvc\lib\rustlib\riscv64gc-unknown-none-elf\lib\libcompiler_builtins-68e6dafd27578d1b.rlib(compiler_builtins-68e6dafd27578d1b.compiler_builtins.28f9de005c366824-cgu.343.rcgu.o):(.debug_info)
           2a252            2a252        0     1                 .L0 
           2a252            2a252        0     1                 $d
               0                0     2490     1 .debug_aranges
               0                0      170     1         D:\rust\bogokernel\target\riscv64gc-unknown-none-elf\debug\deps\kernel-6d55ed35400b9dc4.8bzhb9fu7en3rtrx7zpckaf8v.10m4h80.rcgu.o:(.debug_aranges)
               0                0        0     1                 $d
             170              170     2140     1         C:\Users\Magnus\.rustup\toolchains\nightly-x86_64-pc-windows-msvc\lib\rustlib\riscv64gc-unknown-none-elf\lib\libcore-6873ca3f970f9a34.rlib(core-6873ca3f970f9a34.core.d22cbba136389eb0-cgu.0.rcgu.o):(.debug_aranges)
             170              170        0     1                 $d
            22b0             22b0       30     1         C:\Users\Magnus\.rustup\toolchains\nightly-x86_64-pc-windows-msvc\lib\rustlib\riscv64gc-unknown-none-elf\lib\libcompiler_builtins-68e6dafd27578d1b.rlib(compiler_builtins-68e6dafd27578d1b.compiler_builtins.28f9de005c366824-cgu.158.rcgu.o):(.debug_aranges)
            22b0             22b0        0     1                 $d
            22e0             22e0       30     1         C:\Users\Magnus\.rustup\toolchains\nightly-x86_64-pc-windows-msvc\lib\rustlib\riscv64gc-unknown-none-elf\lib\libcompiler_builtins-68e6dafd27578d1b.rlib(compiler_builtins-68e6dafd27578d1b.compiler_builtins.28f9de005c366824-cgu.207.rcgu.o):(.debug_aranges)
            22e0             22e0        0     1                 $d
            2310             2310       30     1         C:\Users\Magnus\.rustup\toolchains\nightly-x86_64-pc-windows-msvc\lib\rustlib\riscv64gc-unknown-none-elf\lib\libcompiler_builtins-68e6dafd27578d1b.rlib(compiler_builtins-68e6dafd27578d1b.compiler_builtins.28f9de005c366824-cgu.223.rcgu.o):(.debug_aranges)
            2310             2310        0     1                 $d
            2340             2340       30     1         C:\Users\Magnus\.rustup\toolchains\nightly-x86_64-pc-windows-msvc\lib\rustlib\riscv64gc-unknown-none-elf\lib\libcompiler_builtins-68e6dafd27578d1b.rlib(compiler_builtins-68e6dafd27578d1b.compiler_builtins.28f9de005c366824-cgu.247.rcgu.o):(.debug_aranges)
            2340             2340        0     1                 $d
            2370             2370       50     1         C:\Users\Magnus\.rustup\toolchains\nightly-x86_64-pc-windows-msvc\lib\rustlib\riscv64gc-unknown-none-elf\lib\libcompiler_builtins-68e6dafd27578d1b.rlib(compiler_builtins-68e6dafd27578d1b.compiler_builtins.28f9de005c366824-cgu.013.rcgu.o):(.debug_aranges)
            2370             2370        0     1                 $d
            23c0             23c0       30     1         C:\Users\Magnus\.rustup\toolchains\nightly-x86_64-pc-windows-msvc\lib\rustlib\riscv64gc-unknown-none-elf\lib\libcompiler_builtins-68e6dafd27578d1b.rlib(compiler_builtins-68e6dafd27578d1b.compiler_builtins.28f9de005c366824-cgu.323.rcgu.o):(.debug_aranges)
            23c0             23c0        0     1                 $d
            23f0             23f0       70     1         C:\Users\Magnus\.rustup\toolchains\nightly-x86_64-pc-windows-msvc\lib\rustlib\riscv64gc-unknown-none-elf\lib\libcompiler_builtins-68e6dafd27578d1b.rlib(compiler_builtins-68e6dafd27578d1b.compiler_builtins.28f9de005c366824-cgu.008.rcgu.o):(.debug_aranges)
            23f0             23f0        0     1                 $d
            2460             2460       30     1         C:\Users\Magnus\.rustup\toolchains\nightly-x86_64-pc-windows-msvc\lib\rustlib\riscv64gc-unknown-none-elf\lib\libcompiler_builtins-68e6dafd27578d1b.rlib(compiler_builtins-68e6dafd27578d1b.compiler_builtins.28f9de005c366824-cgu.343.rcgu.o):(.debug_aranges)
            2460             2460        0     1                 $d
               0                0    17c20     1 .debug_ranges
               0                0      7a0     1         D:\rust\bogokernel\target\riscv64gc-unknown-none-elf\debug\deps\kernel-6d55ed35400b9dc4.8bzhb9fu7en3rtrx7zpckaf8v.10m4h80.rcgu.o:(.debug_ranges)
               0                0        0     1                 .L0 
               0                0        0     1                 $d
              30               30        0     1                 .L0 
              60               60        0     1                 .L0 
              a0               a0        0     1                 .L0 
              d0               d0        0     1                 .L0 
             100              100        0     1                 .L0 
             130              130        0     1                 .L0 
             160              160        0     1                 .L0 
             190              190        0     1                 .L0 
             1c0              1c0        0     1                 .L0 
             1f0              1f0        0     1                 .L0 
             230              230        0     1                 .L0 
             270              270        0     1                 .L0 
             2a0              2a0        0     1                 .L0 
             2d0              2d0        0     1                 .L0 
             300              300        0     1                 .L0 
             330              330        0     1                 .L0 
             360              360        0     1                 .L0 
             3a0              3a0        0     1                 .L0 
             3e0              3e0        0     1                 .L0 
             420              420        0     1                 .L0 
             450              450        0     1                 .L0 
             480              480        0     1                 .L0 
             4b0              4b0        0     1                 .L0 
             4e0              4e0        0     1                 .L0 
             510              510        0     1                 .L0 
             550              550        0     1                 .L0 
             5a0              5a0        0     1                 .L0 
             5f0              5f0        0     1                 .L0 
             630              630        0     1                 .L0 
             660              660        0     1                 .L0 
             690              690        0     1                 .L0 
             7a0              7a0    16500     1         C:\Users\Magnus\.rustup\toolchains\nightly-x86_64-pc-windows-msvc\lib\rustlib\riscv64gc-unknown-none-elf\lib\libcore-6873ca3f970f9a34.rlib(core-6873ca3f970f9a34.core.d22cbba136389eb0-cgu.0.rcgu.o):(.debug_ranges)
             7a0              7a0        0     1                 .L0 
             7a0              7a0        0     1                 $d
             7d0              7d0        0     1                 .L0 
             800              800        0     1                 .L0 
             830              830        0     1                 .L0 
             860              860        0     1                 .L0 
             890              890        0     1                 .L0 
             8c0              8c0        0     1                 .L0 
             8f0              8f0        0     1                 .L0 
             920              920        0     1                 .L0 
             950              950        0     1                 .L0 
             980              980        0     1                 .L0 
             9b0              9b0        0     1                 .L0 
             9e0              9e0        0     1                 .L0 
             a10              a10        0     1                 .L0 
             a40              a40        0     1                 .L0 
             a70              a70        0     1                 .L0 
             ac0              ac0        0     1                 .L0 
             b00              b00        0     1                 .L0 
             b50              b50        0     1                 .L0 
             b80              b80        0     1                 .L0 
             bb0              bb0        0     1                 .L0 
             c40              c40        0     1                 .L0 
             cd0              cd0        0     1                 .L0 
             d40              d40        0     1                 .L0 
             d70              d70        0     1                 .L0 
             db0              db0        0     1                 .L0 
             de0              de0        0     1                 .L0 
             e10              e10        0     1                 .L0 
             e40              e40        0     1                 .L0 
             ea0              ea0        0     1                 .L0 
             ef0              ef0        0     1                 .L0 
             f40              f40        0     1                 .L0 
             f90              f90        0     1                 .L0 
             fe0              fe0        0     1                 .L0 
            1040             1040        0     1                 .L0 
            1070             1070        0     1                 .L0 
            10c0             10c0        0     1                 .L0 
            1110             1110        0     1                 .L0 
            1160             1160        0     1                 .L0 
            11b0             11b0        0     1                 .L0 
            11e0             11e0        0     1                 .L0 
            1210             1210        0     1                 .L0 
            1240             1240        0     1                 .L0 
            1270             1270        0     1                 .L0 
            12a0             12a0        0     1                 .L0 
            12d0             12d0        0     1                 .L0 
            1300             1300        0     1                 .L0 
            1330             1330        0     1                 .L0 
            1360             1360        0     1                 .L0 
            13b0             13b0        0     1                 .L0 
            13f0             13f0        0     1                 .L0 
            1430             1430        0     1                 .L0 
            1470             1470        0     1                 .L0 
            14a0             14a0        0     1                 .L0 
            14e0             14e0        0     1                 .L0 
            1510             1510        0     1                 .L0 
            1550             1550        0     1                 .L0 
            1590             1590        0     1                 .L0 
            15c0             15c0        0     1                 .L0 
            15f0             15f0        0     1                 .L0 
            1620             1620        0     1                 .L0 
            1650             1650        0     1                 .L0 
            1680             1680        0     1                 .L0 
            16b0             16b0        0     1                 .L0 
            16e0             16e0        0     1                 .L0 
            1710             1710        0     1                 .L0 
            1740             1740        0     1                 .L0 
            1770             1770        0     1                 .L0 
            17a0             17a0        0     1                 .L0 
            17d0             17d0        0     1                 .L0 
            1800             1800        0     1                 .L0 
            1830             1830        0     1                 .L0 
            1860             1860        0     1                 .L0 
            1890             1890        0     1                 .L0 
            18c0             18c0        0     1                 .L0 
            18f0             18f0        0     1                 .L0 
            1920             1920        0     1                 .L0 
            1950             1950        0     1                 .L0 
            1980             1980        0     1                 .L0 
            19d0             19d0        0     1                 .L0 
            1a10             1a10        0     1                 .L0 
            1a40             1a40        0     1                 .L0 
            1a70             1a70        0     1                 .L0 
            1aa0             1aa0        0     1                 .L0 
            1ad0             1ad0        0     1                 .L0 
            1b00             1b00        0     1                 .L0 
            1b30             1b30        0     1                 .L0 
            1b60             1b60        0     1                 .L0 
            1b90             1b90        0     1                 .L0 
            1bc0             1bc0        0     1                 .L0 
            1bf0             1bf0        0     1                 .L0 
            1c20             1c20        0     1                 .L0 
            1c50             1c50        0     1                 .L0 
            1c80             1c80        0     1                 .L0 
            1cc0             1cc0        0     1                 .L0 
            1d00             1d00        0     1                 .L0 
            1d30             1d30        0     1                 .L0 
            1d60             1d60        0     1                 .L0 
            1d90             1d90        0     1                 .L0 
            1dc0             1dc0        0     1                 .L0 
            1e00             1e00        0     1                 .L0 
            1e40             1e40        0     1                 .L0 
            1e80             1e80        0     1                 .L0 
            1eb0             1eb0        0     1                 .L0 
            1ee0             1ee0        0     1                 .L0 
            1f10             1f10        0     1                 .L0 
            1f40             1f40        0     1                 .L0 
            1f80             1f80        0     1                 .L0 
            1fd0             1fd0        0     1                 .L0 
            2010             2010        0     1                 .L0 
            2040             2040        0     1                 .L0 
            2070             2070        0     1                 .L0 
            20a0             20a0        0     1                 .L0 
            2110             2110        0     1                 .L0 
            2140             2140        0     1                 .L0 
            21b0             21b0        0     1                 .L0 
            21e0             21e0        0     1                 .L0 
            2210             2210        0     1                 .L0 
            2240             2240        0     1                 .L0 
            2270             2270        0     1                 .L0 
            22a0             22a0        0     1                 .L0 
            22e0             22e0        0     1                 .L0 
            2310             2310        0     1                 .L0 
            2340             2340        0     1                 .L0 
            2370             2370        0     1                 .L0 
            23b0             23b0        0     1                 .L0 
            23e0             23e0        0     1                 .L0 
            2410             2410        0     1                 .L0 
            2450             2450        0     1                 .L0 
            2480             2480        0     1                 .L0 
            24b0             24b0        0     1                 .L0 
            24e0             24e0        0     1                 .L0 
            2510             2510        0     1                 .L0 
            2540             2540        0     1                 .L0 
            2570             2570        0     1                 .L0 
            25a0             25a0        0     1                 .L0 
            25d0             25d0        0     1                 .L0 
            2600             2600        0     1                 .L0 
            2630             2630        0     1                 .L0 
            2660             2660        0     1                 .L0 
            26a0             26a0        0     1                 .L0 
            2700             2700        0     1                 .L0 
            2740             2740        0     1                 .L0 
            2770             2770        0     1                 .L0 
            27a0             27a0        0     1                 .L0 
            27d0             27d0        0     1                 .L0 
            2810             2810        0     1                 .L0 
            2860             2860        0     1                 .L0 
            28a0             28a0        0     1                 .L0 
            28d0             28d0        0     1                 .L0 
            2900             2900        0     1                 .L0 
            2950             2950        0     1                 .L0 
            29a0             29a0        0     1                 .L0 
            29e0             29e0        0     1                 .L0 
            2a10             2a10        0     1                 .L0 
            2a40             2a40        0     1                 .L0 
            2a70             2a70        0     1                 .L0 
            2aa0             2aa0        0     1                 .L0 
            2ad0             2ad0        0     1                 .L0 
            2b00             2b00        0     1                 .L0 
            2b40             2b40        0     1                 .L0 
            2b70             2b70        0     1                 .L0 
            2ba0             2ba0        0     1                 .L0 
            2bd0             2bd0        0     1                 .L0 
            2c00             2c00        0     1                 .L0 
            2c30             2c30        0     1                 .L0 
            2c70             2c70        0     1                 .L0 
            2ca0             2ca0        0     1                 .L0 
            2cd0             2cd0        0     1                 .L0 
            2d00             2d00        0     1                 .L0 
            2d30             2d30        0     1                 .L0 
            2d60             2d60        0     1                 .L0 
            2da0             2da0        0     1                 .L0 
            2dd0             2dd0        0     1                 .L0 
            2e10             2e10        0     1                 .L0 
            2e40             2e40        0     1                 .L0 
            2e70             2e70        0     1                 .L0 
            2ea0             2ea0        0     1                 .L0 
            2ed0             2ed0        0     1                 .L0 
            2f00             2f00        0     1                 .L0 
            2f30             2f30        0     1                 .L0 
            2f70             2f70        0     1                 .L0 
            2fa0             2fa0        0     1                 .L0 
            2fd0             2fd0        0     1                 .L0 
            3000             3000        0     1                 .L0 
            3030             3030        0     1                 .L0 
            3070             3070        0     1                 .L0 
            30a0             30a0        0     1                 .L0 
            30e0             30e0        0     1                 .L0 
            3110             3110        0     1                 .L0 
            3140             3140        0     1                 .L0 
            3170             3170        0     1                 .L0 
            31a0             31a0        0     1                 .L0 
            31d0             31d0        0     1                 .L0 
            3200             3200        0     1                 .L0 
            3230             3230        0     1                 .L0 
            3260             3260        0     1                 .L0 
            3290             3290        0     1                 .L0 
            32c0             32c0        0     1                 .L0 
            32f0             32f0        0     1                 .L0 
            3320             3320        0     1                 .L0 
            3350             3350        0     1                 .L0 
            3380             3380        0     1                 .L0 
            33b0             33b0        0     1                 .L0 
            33e0             33e0        0     1                 .L0 
            3420             3420        0     1                 .L0 
            3450             3450        0     1                 .L0 
            3490             3490        0     1                 .L0 
            34c0             34c0        0     1                 .L0 
            34f0             34f0        0     1                 .L0 
            3520             3520        0     1                 .L0 
            3550             3550        0     1                 .L0 
            3580             3580        0     1                 .L0 
            35b0             35b0        0     1                 .L0 
            35e0             35e0        0     1                 .L0 
            3610             3610        0     1                 .L0 
            3650             3650        0     1                 .L0 
            3680             3680        0     1                 .L0 
            36b0             36b0        0     1                 .L0 
            36e0             36e0        0     1                 .L0 
            3710             3710        0     1                 .L0 
            3740             3740        0     1                 .L0 
            3780             3780        0     1                 .L0 
            37b0             37b0        0     1                 .L0 
            37e0             37e0        0     1                 .L0 
            3810             3810        0     1                 .L0 
            3840             3840        0     1                 .L0 
            3870             3870        0     1                 .L0 
            38a0             38a0        0     1                 .L0 
            38d0             38d0        0     1                 .L0 
            3930             3930        0     1                 .L0 
            3960             3960        0     1                 .L0 
            39a0             39a0        0     1                 .L0 
            39d0             39d0        0     1                 .L0 
            3a00             3a00        0     1                 .L0 
            3a30             3a30        0     1                 .L0 
            3a60             3a60        0     1                 .L0 
            3a90             3a90        0     1                 .L0 
            3ac0             3ac0        0     1                 .L0 
            3af0             3af0        0     1                 .L0 
            3b20             3b20        0     1                 .L0 
            3b50             3b50        0     1                 .L0 
            3b80             3b80        0     1                 .L0 
            3bb0             3bb0        0     1                 .L0 
            3be0             3be0        0     1                 .L0 
            3c10             3c10        0     1                 .L0 
            3c40             3c40        0     1                 .L0 
            3c70             3c70        0     1                 .L0 
            3cd0             3cd0        0     1                 .L0 
            3d00             3d00        0     1                 .L0 
            3d60             3d60        0     1                 .L0 
            3da0             3da0        0     1                 .L0 
            3de0             3de0        0     1                 .L0 
            3e10             3e10        0     1                 .L0 
            3e50             3e50        0     1                 .L0 
            3e80             3e80        0     1                 .L0 
            3eb0             3eb0        0     1                 .L0 
            3ee0             3ee0        0     1                 .L0 
            3f10             3f10        0     1                 .L0 
            3f60             3f60        0     1                 .L0 
            3fa0             3fa0        0     1                 .L0 
            3fd0             3fd0        0     1                 .L0 
            4000             4000        0     1                 .L0 
            4030             4030        0     1                 .L0 
            4060             4060        0     1                 .L0 
            4090             4090        0     1                 .L0 
            40d0             40d0        0     1                 .L0 
            4100             4100        0     1                 .L0 
            4130             4130        0     1                 .L0 
            4160             4160        0     1                 .L0 
            4190             4190        0     1                 .L0 
            41c0             41c0        0     1                 .L0 
            41f0             41f0        0     1                 .L0 
            4220             4220        0     1                 .L0 
            4250             4250        0     1                 .L0 
            4280             4280        0     1                 .L0 
            42b0             42b0        0     1                 .L0 
            42e0             42e0        0     1                 .L0 
            4310             4310        0     1                 .L0 
            4340             4340        0     1                 .L0 
            4380             4380        0     1                 .L0 
            43b0             43b0        0     1                 .L0 
            43e0             43e0        0     1                 .L0 
            4420             4420        0     1                 .L0 
            4450             4450        0     1                 .L0 
            4480             4480        0     1                 .L0 
            44b0             44b0        0     1                 .L0 
            44e0             44e0        0     1                 .L0 
            4510             4510        0     1                 .L0 
            4540             4540        0     1                 .L0 
            4570             4570        0     1                 .L0 
            45a0             45a0        0     1                 .L0 
            45d0             45d0        0     1                 .L0 
            4600             4600        0     1                 .L0 
            4650             4650        0     1                 .L0 
            4690             4690        0     1                 .L0 
            46d0             46d0        0     1                 .L0 
            4700             4700        0     1                 .L0 
            4730             4730        0     1                 .L0 
            4760             4760        0     1                 .L0 
            4790             4790        0     1                 .L0 
            47c0             47c0        0     1                 .L0 
            4810             4810        0     1                 .L0 
            4850             4850        0     1                 .L0 
            4880             4880        0     1                 .L0 
            48b0             48b0        0     1                 .L0 
            4900             4900        0     1                 .L0 
            4940             4940        0     1                 .L0 
            4980             4980        0     1                 .L0 
            49b0             49b0        0     1                 .L0 
            49f0             49f0        0     1                 .L0 
            4a30             4a30        0     1                 .L0 
            4a70             4a70        0     1                 .L0 
            4ab0             4ab0        0     1                 .L0 
            4ae0             4ae0        0     1                 .L0 
            4b10             4b10        0     1                 .L0 
            4b40             4b40        0     1                 .L0 
            4b90             4b90        0     1                 .L0 
            4bd0             4bd0        0     1                 .L0 
            4c30             4c30        0     1                 .L0 
            4c70             4c70        0     1                 .L0 
            4ca0             4ca0        0     1                 .L0 
            4ce0             4ce0        0     1                 .L0 
            4d20             4d20        0     1                 .L0 
            4d50             4d50        0     1                 .L0 
            4da0             4da0        0     1                 .L0 
            4de0             4de0        0     1                 .L0 
            4e10             4e10        0     1                 .L0 
            4e40             4e40        0     1                 .L0 
            4e70             4e70        0     1                 .L0 
            4ea0             4ea0        0     1                 .L0 
            4ed0             4ed0        0     1                 .L0 
            4f10             4f10        0     1                 .L0 
            4f40             4f40        0     1                 .L0 
            4f70             4f70        0     1                 .L0 
            4fa0             4fa0        0     1                 .L0 
            4fe0             4fe0        0     1                 .L0 
            5020             5020        0     1                 .L0 
            5080             5080        0     1                 .L0 
            50c0             50c0        0     1                 .L0 
            50f0             50f0        0     1                 .L0 
            5130             5130        0     1                 .L0 
            5170             5170        0     1                 .L0 
            51d0             51d0        0     1                 .L0 
            5210             5210        0     1                 .L0 
            5240             5240        0     1                 .L0 
            5270             5270        0     1                 .L0 
            52a0             52a0        0     1                 .L0 
            52e0             52e0        0     1                 .L0 
            5310             5310        0     1                 .L0 
            5340             5340        0     1                 .L0 
            5370             5370        0     1                 .L0 
            53b0             53b0        0     1                 .L0 
            53e0             53e0        0     1                 .L0 
            5430             5430        0     1                 .L0 
            5460             5460        0     1                 .L0 
            54a0             54a0        0     1                 .L0 
            54d0             54d0        0     1                 .L0 
            5500             5500        0     1                 .L0 
            5530             5530        0     1                 .L0 
            5570             5570        0     1                 .L0 
            55a0             55a0        0     1                 .L0 
            55d0             55d0        0     1                 .L0 
            5600             5600        0     1                 .L0 
            5630             5630        0     1                 .L0 
            5660             5660        0     1                 .L0 
            56a0             56a0        0     1                 .L0 
            56e0             56e0        0     1                 .L0 
            5710             5710        0     1                 .L0 
            5740             5740        0     1                 .L0 
            5770             5770        0     1                 .L0 
            57a0             57a0        0     1                 .L0 
            57d0             57d0        0     1                 .L0 
            5800             5800        0     1                 .L0 
            5830             5830        0     1                 .L0 
            5860             5860        0     1                 .L0 
            5890             5890        0     1                 .L0 
            58c0             58c0        0     1                 .L0 
            58f0             58f0        0     1                 .L0 
            5920             5920        0     1                 .L0 
            5950             5950        0     1                 .L0 
            5980             5980        0     1                 .L0 
            59c0             59c0        0     1                 .L0 
            5a00             5a00        0     1                 .L0 
            5a30             5a30        0     1                 .L0 
            5a70             5a70        0     1                 .L0 
            5ab0             5ab0        0     1                 .L0 
            5ae0             5ae0        0     1                 .L0 
            5b10             5b10        0     1                 .L0 
            5b40             5b40        0     1                 .L0 
            5b80             5b80        0     1                 .L0 
            5bc0             5bc0        0     1                 .L0 
            5bf0             5bf0        0     1                 .L0 
            5c20             5c20        0     1                 .L0 
            5c50             5c50        0     1                 .L0 
            5c80             5c80        0     1                 .L0 
            5cb0             5cb0        0     1                 .L0 
            5cf0             5cf0        0     1                 .L0 
            5d30             5d30        0     1                 .L0 
            5d60             5d60        0     1                 .L0 
            5da0             5da0        0     1                 .L0 
            5dd0             5dd0        0     1                 .L0 
            5e30             5e30        0     1                 .L0 
            5e60             5e60        0     1                 .L0 
            5e90             5e90        0     1                 .L0 
            5ee0             5ee0        0     1                 .L0 
            5f10             5f10        0     1                 .L0 
            5f50             5f50        0     1                 .L0 
            5f80             5f80        0     1                 .L0 
            5fb0             5fb0        0     1                 .L0 
            5fe0             5fe0        0     1                 .L0 
            6010             6010        0     1                 .L0 
            6040             6040        0     1                 .L0 
            6070             6070        0     1                 .L0 
            60a0             60a0        0     1                 .L0 
            60d0             60d0        0     1                 .L0 
            6110             6110        0     1                 .L0 
            6140             6140        0     1                 .L0 
            6170             6170        0     1                 .L0 
            61a0             61a0        0     1                 .L0 
            61d0             61d0        0     1                 .L0 
            6200             6200        0     1                 .L0 
            6240             6240        0     1                 .L0 
            6270             6270        0     1                 .L0 
            62a0             62a0        0     1                 .L0 
            62d0             62d0        0     1                 .L0 
            63b0             63b0        0     1                 .L0 
            6400             6400        0     1                 .L0 
            6440             6440        0     1                 .L0 
            6480             6480        0     1                 .L0 
            64d0             64d0        0     1                 .L0 
            6510             6510        0     1                 .L0 
            6600             6600        0     1                 .L0 
            6660             6660        0     1                 .L0 
            66b0             66b0        0     1                 .L0 
            66e0             66e0        0     1                 .L0 
            6710             6710        0     1                 .L0 
            6760             6760        0     1                 .L0 
            6790             6790        0     1                 .L0 
            67c0             67c0        0     1                 .L0 
            67f0             67f0        0     1                 .L0 
            6820             6820        0     1                 .L0 
            6850             6850        0     1                 .L0 
            6880             6880        0     1                 .L0 
            68d0             68d0        0     1                 .L0 
            6900             6900        0     1                 .L0 
            6930             6930        0     1                 .L0 
            6960             6960        0     1                 .L0 
            69a0             69a0        0     1                 .L0 
            69d0             69d0        0     1                 .L0 
            6a00             6a00        0     1                 .L0 
            6a50             6a50        0     1                 .L0 
            6aa0             6aa0        0     1                 .L0 
            6af0             6af0        0     1                 .L0 
            6b20             6b20        0     1                 .L0 
            6b50             6b50        0     1                 .L0 
            6b80             6b80        0     1                 .L0 
            6bb0             6bb0        0     1                 .L0 
            6be0             6be0        0     1                 .L0 
            6c10             6c10        0     1                 .L0 
            6c60             6c60        0     1                 .L0 
            6c90             6c90        0     1                 .L0 
            6cc0             6cc0        0     1                 .L0 
            6cf0             6cf0        0     1                 .L0 
            6d70             6d70        0     1                 .L0 
            6db0             6db0        0     1                 .L0 
            6de0             6de0        0     1                 .L0 
            6e10             6e10        0     1                 .L0 
            6e40             6e40        0     1                 .L0 
            6e70             6e70        0     1                 .L0 
            6ea0             6ea0        0     1                 .L0 
            6ed0             6ed0        0     1                 .L0 
            6f10             6f10        0     1                 .L0 
            6f40             6f40        0     1                 .L0 
            6f80             6f80        0     1                 .L0 
            6fd0             6fd0        0     1                 .L0 
            7010             7010        0     1                 .L0 
            7050             7050        0     1                 .L0 
            7090             7090        0     1                 .L0 
            70c0             70c0        0     1                 .L0 
            70f0             70f0        0     1                 .L0 
            7120             7120        0     1                 .L0 
            7150             7150        0     1                 .L0 
            71a0             71a0        0     1                 .L0 
            71f0             71f0        0     1                 .L0 
            7220             7220        0     1                 .L0 
            7260             7260        0     1                 .L0 
            72b0             72b0        0     1                 .L0 
            7300             7300        0     1                 .L0 
            7330             7330        0     1                 .L0 
            7380             7380        0     1                 .L0 
            73b0             73b0        0     1                 .L0 
            73f0             73f0        0     1                 .L0 
            7430             7430        0     1                 .L0 
            7460             7460        0     1                 .L0 
            7490             7490        0     1                 .L0 
            74c0             74c0        0     1                 .L0 
            74f0             74f0        0     1                 .L0 
            7540             7540        0     1                 .L0 
            7590             7590        0     1                 .L0 
            75c0             75c0        0     1                 .L0 
            75f0             75f0        0     1                 .L0 
            7620             7620        0     1                 .L0 
            7670             7670        0     1                 .L0 
            76c0             76c0        0     1                 .L0 
            76f0             76f0        0     1                 .L0 
            7720             7720        0     1                 .L0 
            7770             7770        0     1                 .L0 
            77a0             77a0        0     1                 .L0 
            77f0             77f0        0     1                 .L0 
            7820             7820        0     1                 .L0 
            7870             7870        0     1                 .L0 
            78a0             78a0        0     1                 .L0 
            78d0             78d0        0     1                 .L0 
            7930             7930        0     1                 .L0 
            7980             7980        0     1                 .L0 
            79f0             79f0        0     1                 .L0 
            7a30             7a30        0     1                 .L0 
            7aa0             7aa0        0     1                 .L0 
            7ad0             7ad0        0     1                 .L0 
            7b00             7b00        0     1                 .L0 
            7b40             7b40        0     1                 .L0 
            7b80             7b80        0     1                 .L0 
            7be0             7be0        0     1                 .L0 
            7c10             7c10        0     1                 .L0 
            7c40             7c40        0     1                 .L0 
            7ca0             7ca0        0     1                 .L0 
            7cd0             7cd0        0     1                 .L0 
            7d00             7d00        0     1                 .L0 
            7d30             7d30        0     1                 .L0 
            7d80             7d80        0     1                 .L0 
            7db0             7db0        0     1                 .L0 
            7e10             7e10        0     1                 .L0 
            7e60             7e60        0     1                 .L0 
            7ea0             7ea0        0     1                 .L0 
            7ee0             7ee0        0     1                 .L0 
            7f10             7f10        0     1                 .L0 
            7f40             7f40        0     1                 .L0 
            7f70             7f70        0     1                 .L0 
            7fb0             7fb0        0     1                 .L0 
            7fe0             7fe0        0     1                 .L0 
            8030             8030        0     1                 .L0 
            8060             8060        0     1                 .L0 
            8090             8090        0     1                 .L0 
            80c0             80c0        0     1                 .L0 
            80f0             80f0        0     1                 .L0 
            8130             8130        0     1                 .L0 
            8170             8170        0     1                 .L0 
            81a0             81a0        0     1                 .L0 
            81e0             81e0        0     1                 .L0 
            8220             8220        0     1                 .L0 
            8250             8250        0     1                 .L0 
            8290             8290        0     1                 .L0 
            82d0             82d0        0     1                 .L0 
            8300             8300        0     1                 .L0 
            8330             8330        0     1                 .L0 
            8370             8370        0     1                 .L0 
            83b0             83b0        0     1                 .L0 
            83e0             83e0        0     1                 .L0 
            8410             8410        0     1                 .L0 
            8460             8460        0     1                 .L0 
            8490             8490        0     1                 .L0 
            84e0             84e0        0     1                 .L0 
            8530             8530        0     1                 .L0 
            8580             8580        0     1                 .L0 
            85d0             85d0        0     1                 .L0 
            8600             8600        0     1                 .L0 
            8650             8650        0     1                 .L0 
            8680             8680        0     1                 .L0 
            86b0             86b0        0     1                 .L0 
            86f0             86f0        0     1                 .L0 
            8720             8720        0     1                 .L0 
            8750             8750        0     1                 .L0 
            8780             8780        0     1                 .L0 
            87b0             87b0        0     1                 .L0 
            87e0             87e0        0     1                 .L0 
            8810             8810        0     1                 .L0 
            8840             8840        0     1                 .L0 
            8870             8870        0     1                 .L0 
            88a0             88a0        0     1                 .L0 
            88d0             88d0        0     1                 .L0 
            8900             8900        0     1                 .L0 
            8930             8930        0     1                 .L0 
            8960             8960        0     1                 .L0 
            8990             8990        0     1                 .L0 
            89f0             89f0        0     1                 .L0 
            8a30             8a30        0     1                 .L0 
            8a70             8a70        0     1                 .L0 
            8ab0             8ab0        0     1                 .L0 
            8af0             8af0        0     1                 .L0 
            8b30             8b30        0     1                 .L0 
            8bb0             8bb0        0     1                 .L0 
            8c30             8c30        0     1                 .L0 
            8d20             8d20        0     1                 .L0 
            8da0             8da0        0     1                 .L0 
            8e20             8e20        0     1                 .L0 
            8e50             8e50        0     1                 .L0 
            8e80             8e80        0     1                 .L0 
            8ec0             8ec0        0     1                 .L0 
            8f00             8f00        0     1                 .L0 
            8f40             8f40        0     1                 .L0 
            8f70             8f70        0     1                 .L0 
            8fb0             8fb0        0     1                 .L0 
            8fe0             8fe0        0     1                 .L0 
            9010             9010        0     1                 .L0 
            9040             9040        0     1                 .L0 
            9070             9070        0     1                 .L0 
            90c0             90c0        0     1                 .L0 
            90f0             90f0        0     1                 .L0 
            9120             9120        0     1                 .L0 
            9160             9160        0     1                 .L0 
            9190             9190        0     1                 .L0 
            91c0             91c0        0     1                 .L0 
            9210             9210        0     1                 .L0 
            9240             9240        0     1                 .L0 
            9270             9270        0     1                 .L0 
            92b0             92b0        0     1                 .L0 
            92e0             92e0        0     1                 .L0 
            9310             9310        0     1                 .L0 
            9340             9340        0     1                 .L0 
            9370             9370        0     1                 .L0 
            93a0             93a0        0     1                 .L0 
            93d0             93d0        0     1                 .L0 
            9410             9410        0     1                 .L0 
            9440             9440        0     1                 .L0 
            9470             9470        0     1                 .L0 
            94a0             94a0        0     1                 .L0 
            94d0             94d0        0     1                 .L0 
            9500             9500        0     1                 .L0 
            9540             9540        0     1                 .L0 
            9570             9570        0     1                 .L0 
            95b0             95b0        0     1                 .L0 
            95e0             95e0        0     1                 .L0 
            9610             9610        0     1                 .L0 
            9640             9640        0     1                 .L0 
            9670             9670        0     1                 .L0 
            96a0             96a0        0     1                 .L0 
            96d0             96d0        0     1                 .L0 
            9700             9700        0     1                 .L0 
            9730             9730        0     1                 .L0 
            9780             9780        0     1                 .L0 
            97b0             97b0        0     1                 .L0 
            97e0             97e0        0     1                 .L0 
            9810             9810        0     1                 .L0 
            9840             9840        0     1                 .L0 
            9880             9880        0     1                 .L0 
            98b0             98b0        0     1                 .L0 
            98e0             98e0        0     1                 .L0 
            9910             9910        0     1                 .L0 
            9940             9940        0     1                 .L0 
            99a0             99a0        0     1                 .L0 
            99d0             99d0        0     1                 .L0 
            9a00             9a00        0     1                 .L0 
            9a30             9a30        0     1                 .L0 
            9a60             9a60        0     1                 .L0 
            9aa0             9aa0        0     1                 .L0 
            9ae0             9ae0        0     1                 .L0 
            9b20             9b20        0     1                 .L0 
            9b60             9b60        0     1                 .L0 
            9b90             9b90        0     1                 .L0 
            9bc0             9bc0        0     1                 .L0 
            9bf0             9bf0        0     1                 .L0 
            9c20             9c20        0     1                 .L0 
            9c50             9c50        0     1                 .L0 
            9c80             9c80        0     1                 .L0 
            9cb0             9cb0        0     1                 .L0 
            9cf0             9cf0        0     1                 .L0 
            9d20             9d20        0     1                 .L0 
            9d50             9d50        0     1                 .L0 
            9d90             9d90        0     1                 .L0 
            9dc0             9dc0        0     1                 .L0 
            9df0             9df0        0     1                 .L0 
            9e20             9e20        0     1                 .L0 
            9e50             9e50        0     1                 .L0 
            9e80             9e80        0     1                 .L0 
            9eb0             9eb0        0     1                 .L0 
            9ee0             9ee0        0     1                 .L0 
            9f10             9f10        0     1                 .L0 
            9f40             9f40        0     1                 .L0 
            9f70             9f70        0     1                 .L0 
            9fa0             9fa0        0     1                 .L0 
            9fd0             9fd0        0     1                 .L0 
            a000             a000        0     1                 .L0 
            a040             a040        0     1                 .L0 
            a070             a070        0     1                 .L0 
            a0a0             a0a0        0     1                 .L0 
            a0e0             a0e0        0     1                 .L0 
            a120             a120        0     1                 .L0 
            a150             a150        0     1                 .L0 
            a1a0             a1a0        0     1                 .L0 
            a1d0             a1d0        0     1                 .L0 
            a210             a210        0     1                 .L0 
            a250             a250        0     1                 .L0 
            a280             a280        0     1                 .L0 
            a2b0             a2b0        0     1                 .L0 
            a2e0             a2e0        0     1                 .L0 
            a310             a310        0     1                 .L0 
            a340             a340        0     1                 .L0 
            a370             a370        0     1                 .L0 
            a3a0             a3a0        0     1                 .L0 
            a3e0             a3e0        0     1                 .L0 
            a420             a420        0     1                 .L0 
            a450             a450        0     1                 .L0 
            a480             a480        0     1                 .L0 
            a4b0             a4b0        0     1                 .L0 
            a4e0             a4e0        0     1                 .L0 
            a510             a510        0     1                 .L0 
            a560             a560        0     1                 .L0 
            a5b0             a5b0        0     1                 .L0 
            a600             a600        0     1                 .L0 
            a630             a630        0     1                 .L0 
            a670             a670        0     1                 .L0 
            a6b0             a6b0        0     1                 .L0 
            a6f0             a6f0        0     1                 .L0 
            a730             a730        0     1                 .L0 
            a760             a760        0     1                 .L0 
            a790             a790        0     1                 .L0 
            aa10             aa10        0     1                 .L0 
            aa60             aa60        0     1                 .L0 
            aa90             aa90        0     1                 .L0 
            aad0             aad0        0     1                 .L0 
            ab10             ab10        0     1                 .L0 
            ab40             ab40        0     1                 .L0 
            ab80             ab80        0     1                 .L0 
            abb0             abb0        0     1                 .L0 
            abe0             abe0        0     1                 .L0 
            ac10             ac10        0     1                 .L0 
            ac50             ac50        0     1                 .L0 
            ac80             ac80        0     1                 .L0 
            acb0             acb0        0     1                 .L0 
            acf0             acf0        0     1                 .L0 
            ad20             ad20        0     1                 .L0 
            ad50             ad50        0     1                 .L0 
            ad90             ad90        0     1                 .L0 
            adc0             adc0        0     1                 .L0 
            adf0             adf0        0     1                 .L0 
            ae30             ae30        0     1                 .L0 
            ae70             ae70        0     1                 .L0 
            aeb0             aeb0        0     1                 .L0 
            aee0             aee0        0     1                 .L0 
            af20             af20        0     1                 .L0 
            af50             af50        0     1                 .L0 
            af80             af80        0     1                 .L0 
            afb0             afb0        0     1                 .L0 
            aff0             aff0        0     1                 .L0 
            b020             b020        0     1                 .L0 
            b050             b050        0     1                 .L0 
            b080             b080        0     1                 .L0 
            b0b0             b0b0        0     1                 .L0 
            b0e0             b0e0        0     1                 .L0 
            b120             b120        0     1                 .L0 
            b150             b150        0     1                 .L0 
            b180             b180        0     1                 .L0 
            b1b0             b1b0        0     1                 .L0 
            b1f0             b1f0        0     1                 .L0 
            b230             b230        0     1                 .L0 
            b260             b260        0     1                 .L0 
            b2a0             b2a0        0     1                 .L0 
            b2d0             b2d0        0     1                 .L0 
            b300             b300        0     1                 .L0 
            b330             b330        0     1                 .L0 
            b360             b360        0     1                 .L0 
            b390             b390        0     1                 .L0 
            b3c0             b3c0        0     1                 .L0 
            b400             b400        0     1                 .L0 
            b430             b430        0     1                 .L0 
            b460             b460        0     1                 .L0 
            b490             b490        0     1                 .L0 
            b4c0             b4c0        0     1                 .L0 
            b4f0             b4f0        0     1                 .L0 
            b520             b520        0     1                 .L0 
            b560             b560        0     1                 .L0 
            b590             b590        0     1                 .L0 
            b5c0             b5c0        0     1                 .L0 
            b5f0             b5f0        0     1                 .L0 
            b620             b620        0     1                 .L0 
            b650             b650        0     1                 .L0 
            b690             b690        0     1                 .L0 
            b6c0             b6c0        0     1                 .L0 
            b710             b710        0     1                 .L0 
            b770             b770        0     1                 .L0 
            b7f0             b7f0        0     1                 .L0 
            b820             b820        0     1                 .L0 
            b850             b850        0     1                 .L0 
            b880             b880        0     1                 .L0 
            b8c0             b8c0        0     1                 .L0 
            b8f0             b8f0        0     1                 .L0 
            b920             b920        0     1                 .L0 
            b950             b950        0     1                 .L0 
            b9c0             b9c0        0     1                 .L0 
            ba30             ba30        0     1                 .L0 
            bab0             bab0        0     1                 .L0 
            bb00             bb00        0     1                 .L0 
            bb40             bb40        0     1                 .L0 
            bba0             bba0        0     1                 .L0 
            bbd0             bbd0        0     1                 .L0 
            bc00             bc00        0     1                 .L0 
            bc70             bc70        0     1                 .L0 
            bcf0             bcf0        0     1                 .L0 
            bd80             bd80        0     1                 .L0 
            bdd0             bdd0        0     1                 .L0 
            be20             be20        0     1                 .L0 
            be80             be80        0     1                 .L0 
            beb0             beb0        0     1                 .L0 
            bf00             bf00        0     1                 .L0 
            bf30             bf30        0     1                 .L0 
            bf60             bf60        0     1                 .L0 
            bf90             bf90        0     1                 .L0 
            bfc0             bfc0        0     1                 .L0 
            bff0             bff0        0     1                 .L0 
            c040             c040        0     1                 .L0 
            c0b0             c0b0        0     1                 .L0 
            c100             c100        0     1                 .L0 
            c130             c130        0     1                 .L0 
            c180             c180        0     1                 .L0 
            c310             c310        0     1                 .L0 
            c4e0             c4e0        0     1                 .L0 
            c640             c640        0     1                 .L0 
            c750             c750        0     1                 .L0 
            c820             c820        0     1                 .L0 
            c8c0             c8c0        0     1                 .L0 
            c930             c930        0     1                 .L0 
            c970             c970        0     1                 .L0 
            c9a0             c9a0        0     1                 .L0 
            c9d0             c9d0        0     1                 .L0 
            ca20             ca20        0     1                 .L0 
            ca50             ca50        0     1                 .L0 
            ca80             ca80        0     1                 .L0 
            cab0             cab0        0     1                 .L0 
            cae0             cae0        0     1                 .L0 
            cb10             cb10        0     1                 .L0 
            cb40             cb40        0     1                 .L0 
            cb80             cb80        0     1                 .L0 
            cbb0             cbb0        0     1                 .L0 
            cbe0             cbe0        0     1                 .L0 
            cc20             cc20        0     1                 .L0 
            cc60             cc60        0     1                 .L0 
            cc90             cc90        0     1                 .L0 
            ccc0             ccc0        0     1                 .L0 
            ccf0             ccf0        0     1                 .L0 
            cd20             cd20        0     1                 .L0 
            cd50             cd50        0     1                 .L0 
            cd90             cd90        0     1                 .L0 
            cdc0             cdc0        0     1                 .L0 
            cdf0             cdf0        0     1                 .L0 
            ce30             ce30        0     1                 .L0 
            ce70             ce70        0     1                 .L0 
            cec0             cec0        0     1                 .L0 
            cef0             cef0        0     1                 .L0 
            cf20             cf20        0     1                 .L0 
            cf50             cf50        0     1                 .L0 
            cf80             cf80        0     1                 .L0 
            cfb0             cfb0        0     1                 .L0 
            cfe0             cfe0        0     1                 .L0 
            d010             d010        0     1                 .L0 
            d040             d040        0     1                 .L0 
            d070             d070        0     1                 .L0 
            d0a0             d0a0        0     1                 .L0 
            d0d0             d0d0        0     1                 .L0 
            d130             d130        0     1                 .L0 
            d170             d170        0     1                 .L0 
            d1b0             d1b0        0     1                 .L0 
            d1e0             d1e0        0     1                 .L0 
            d210             d210        0     1                 .L0 
            d260             d260        0     1                 .L0 
            d290             d290        0     1                 .L0 
            d2d0             d2d0        0     1                 .L0 
            d300             d300        0     1                 .L0 
            d330             d330        0     1                 .L0 
            d380             d380        0     1                 .L0 
            d3b0             d3b0        0     1                 .L0 
            d3f0             d3f0        0     1                 .L0 
            d450             d450        0     1                 .L0 
            d480             d480        0     1                 .L0 
            d4b0             d4b0        0     1                 .L0 
            d4f0             d4f0        0     1                 .L0 
            d530             d530        0     1                 .L0 
            d580             d580        0     1                 .L0 
            d5c0             d5c0        0     1                 .L0 
            d5f0             d5f0        0     1                 .L0 
            d620             d620        0     1                 .L0 
            d650             d650        0     1                 .L0 
            d680             d680        0     1                 .L0 
            d6c0             d6c0        0     1                 .L0 
            d6f0             d6f0        0     1                 .L0 
            d740             d740        0     1                 .L0 
            d790             d790        0     1                 .L0 
            d7c0             d7c0        0     1                 .L0 
            d7f0             d7f0        0     1                 .L0 
            d820             d820        0     1                 .L0 
            d850             d850        0     1                 .L0 
            d890             d890        0     1                 .L0 
            d8c0             d8c0        0     1                 .L0 
            d8f0             d8f0        0     1                 .L0 
            d930             d930        0     1                 .L0 
            d970             d970        0     1                 .L0 
            d9c0             d9c0        0     1                 .L0 
            da00             da00        0     1                 .L0 
            da30             da30        0     1                 .L0 
            da60             da60        0     1                 .L0 
            da90             da90        0     1                 .L0 
            dad0             dad0        0     1                 .L0 
            db10             db10        0     1                 .L0 
            db50             db50        0     1                 .L0 
            db80             db80        0     1                 .L0 
            dbb0             dbb0        0     1                 .L0 
            dbe0             dbe0        0     1                 .L0 
            dc20             dc20        0     1                 .L0 
            dc60             dc60        0     1                 .L0 
            dca0             dca0        0     1                 .L0 
            dcd0             dcd0        0     1                 .L0 
            dd00             dd00        0     1                 .L0 
            dd30             dd30        0     1                 .L0 
            dd70             dd70        0     1                 .L0 
            ddb0             ddb0        0     1                 .L0 
            ddf0             ddf0        0     1                 .L0 
            de20             de20        0     1                 .L0 
            de60             de60        0     1                 .L0 
            de90             de90        0     1                 .L0 
            ded0             ded0        0     1                 .L0 
            df00             df00        0     1                 .L0 
            df30             df30        0     1                 .L0 
            df70             df70        0     1                 .L0 
            dfa0             dfa0        0     1                 .L0 
            e020             e020        0     1                 .L0 
            e070             e070        0     1                 .L0 
            e0c0             e0c0        0     1                 .L0 
            e0f0             e0f0        0     1                 .L0 
            e130             e130        0     1                 .L0 
            e170             e170        0     1                 .L0 
            e1c0             e1c0        0     1                 .L0 
            e1f0             e1f0        0     1                 .L0 
            e220             e220        0     1                 .L0 
            e270             e270        0     1                 .L0 
            e2a0             e2a0        0     1                 .L0 
            e2e0             e2e0        0     1                 .L0 
            e310             e310        0     1                 .L0 
            e360             e360        0     1                 .L0 
            e390             e390        0     1                 .L0 
            e3d0             e3d0        0     1                 .L0 
            e400             e400        0     1                 .L0 
            e430             e430        0     1                 .L0 
            e470             e470        0     1                 .L0 
            e4a0             e4a0        0     1                 .L0 
            e500             e500        0     1                 .L0 
            e560             e560        0     1                 .L0 
            e5b0             e5b0        0     1                 .L0 
            e5e0             e5e0        0     1                 .L0 
            e610             e610        0     1                 .L0 
            e640             e640        0     1                 .L0 
            e680             e680        0     1                 .L0 
            e6c0             e6c0        0     1                 .L0 
            e710             e710        0     1                 .L0 
            e750             e750        0     1                 .L0 
            e780             e780        0     1                 .L0 
            e7b0             e7b0        0     1                 .L0 
            e7e0             e7e0        0     1                 .L0 
            e820             e820        0     1                 .L0 
            e860             e860        0     1                 .L0 
            e8b0             e8b0        0     1                 .L0 
            e8f0             e8f0        0     1                 .L0 
            e920             e920        0     1                 .L0 
            e950             e950        0     1                 .L0 
            e980             e980        0     1                 .L0 
            e9c0             e9c0        0     1                 .L0 
            ea00             ea00        0     1                 .L0 
            ea50             ea50        0     1                 .L0 
            ea90             ea90        0     1                 .L0 
            eac0             eac0        0     1                 .L0 
            eaf0             eaf0        0     1                 .L0 
            eb20             eb20        0     1                 .L0 
            eb60             eb60        0     1                 .L0 
            eba0             eba0        0     1                 .L0 
            ebf0             ebf0        0     1                 .L0 
            ec20             ec20        0     1                 .L0 
            ec60             ec60        0     1                 .L0 
            ec90             ec90        0     1                 .L0 
            ecd0             ecd0        0     1                 .L0 
            ed10             ed10        0     1                 .L0 
            ed50             ed50        0     1                 .L0 
            ed80             ed80        0     1                 .L0 
            edb0             edb0        0     1                 .L0 
            edf0             edf0        0     1                 .L0 
            ee30             ee30        0     1                 .L0 
            ee60             ee60        0     1                 .L0 
            eea0             eea0        0     1                 .L0 
            eef0             eef0        0     1                 .L0 
            ef20             ef20        0     1                 .L0 
            ef50             ef50        0     1                 .L0 
            ef90             ef90        0     1                 .L0 
            efc0             efc0        0     1                 .L0 
            eff0             eff0        0     1                 .L0 
            f030             f030        0     1                 .L0 
            f070             f070        0     1                 .L0 
            f0a0             f0a0        0     1                 .L0 
            f0d0             f0d0        0     1                 .L0 
            f110             f110        0     1                 .L0 
            f140             f140        0     1                 .L0 
            f180             f180        0     1                 .L0 
            f1b0             f1b0        0     1                 .L0 
            f1f0             f1f0        0     1                 .L0 
            f220             f220        0     1                 .L0 
            f260             f260        0     1                 .L0 
            f290             f290        0     1                 .L0 
            f2d0             f2d0        0     1                 .L0 
            f300             f300        0     1                 .L0 
            f330             f330        0     1                 .L0 
            f360             f360        0     1                 .L0 
            f3a0             f3a0        0     1                 .L0 
            f3f0             f3f0        0     1                 .L0 
            f420             f420        0     1                 .L0 
            f450             f450        0     1                 .L0 
            f490             f490        0     1                 .L0 
            f4e0             f4e0        0     1                 .L0 
            f510             f510        0     1                 .L0 
            f550             f550        0     1                 .L0 
            f5a0             f5a0        0     1                 .L0 
            f5d0             f5d0        0     1                 .L0 
            f600             f600        0     1                 .L0 
            f630             f630        0     1                 .L0 
            f670             f670        0     1                 .L0 
            f6a0             f6a0        0     1                 .L0 
            f6e0             f6e0        0     1                 .L0 
            f750             f750        0     1                 .L0 
            f790             f790        0     1                 .L0 
            f7d0             f7d0        0     1                 .L0 
            f800             f800        0     1                 .L0 
            f830             f830        0     1                 .L0 
            f860             f860        0     1                 .L0 
            f890             f890        0     1                 .L0 
            f8c0             f8c0        0     1                 .L0 
            f8f0             f8f0        0     1                 .L0 
            f920             f920        0     1                 .L0 
            f960             f960        0     1                 .L0 
            f990             f990        0     1                 .L0 
            f9c0             f9c0        0     1                 .L0 
            f9f0             f9f0        0     1                 .L0 
            fa20             fa20        0     1                 .L0 
            fa50             fa50        0     1                 .L0 
            fa80             fa80        0     1                 .L0 
            fab0             fab0        0     1                 .L0 
            fae0             fae0        0     1                 .L0 
            fb10             fb10        0     1                 .L0 
            fb40             fb40        0     1                 .L0 
            fb70             fb70        0     1                 .L0 
            fba0             fba0        0     1                 .L0 
            fbd0             fbd0        0     1                 .L0 
            fc10             fc10        0     1                 .L0 
            fc40             fc40        0     1                 .L0 
            fc70             fc70        0     1                 .L0 
            fca0             fca0        0     1                 .L0 
            fcf0             fcf0        0     1                 .L0 
            fd20             fd20        0     1                 .L0 
            fd50             fd50        0     1                 .L0 
            fd80             fd80        0     1                 .L0 
            fdb0             fdb0        0     1                 .L0 
            fde0             fde0        0     1                 .L0 
            fe20             fe20        0     1                 .L0 
            fe50             fe50        0     1                 .L0 
            fe80             fe80        0     1                 .L0 
            feb0             feb0        0     1                 .L0 
            fef0             fef0        0     1                 .L0 
            ff20             ff20        0     1                 .L0 
            ff50             ff50        0     1                 .L0 
            ff80             ff80        0     1                 .L0 
            ffb0             ffb0        0     1                 .L0 
            ffe0             ffe0        0     1                 .L0 
           10010            10010        0     1                 .L0 
           10040            10040        0     1                 .L0 
           10070            10070        0     1                 .L0 
           100b0            100b0        0     1                 .L0 
           100e0            100e0        0     1                 .L0 
           10110            10110        0     1                 .L0 
           10140            10140        0     1                 .L0 
           10180            10180        0     1                 .L0 
           101b0            101b0        0     1                 .L0 
           101e0            101e0        0     1                 .L0 
           10210            10210        0     1                 .L0 
           10240            10240        0     1                 .L0 
           10280            10280        0     1                 .L0 
           102b0            102b0        0     1                 .L0 
           102e0            102e0        0     1                 .L0 
           10310            10310        0     1                 .L0 
           10350            10350        0     1                 .L0 
           10380            10380        0     1                 .L0 
           103b0            103b0        0     1                 .L0 
           10400            10400        0     1                 .L0 
           10430            10430        0     1                 .L0 
           10460            10460        0     1                 .L0 
           104b0            104b0        0     1                 .L0 
           104e0            104e0        0     1                 .L0 
           10510            10510        0     1                 .L0 
           10560            10560        0     1                 .L0 
           10590            10590        0     1                 .L0 
           105c0            105c0        0     1                 .L0 
           10600            10600        0     1                 .L0 
           10630            10630        0     1                 .L0 
           10660            10660        0     1                 .L0 
           106b0            106b0        0     1                 .L0 
           106e0            106e0        0     1                 .L0 
           10710            10710        0     1                 .L0 
           10760            10760        0     1                 .L0 
           10790            10790        0     1                 .L0 
           107c0            107c0        0     1                 .L0 
           10810            10810        0     1                 .L0 
           10840            10840        0     1                 .L0 
           10870            10870        0     1                 .L0 
           108c0            108c0        0     1                 .L0 
           108f0            108f0        0     1                 .L0 
           10920            10920        0     1                 .L0 
           10970            10970        0     1                 .L0 
           109a0            109a0        0     1                 .L0 
           109d0            109d0        0     1                 .L0 
           10a20            10a20        0     1                 .L0 
           10a50            10a50        0     1                 .L0 
           10a80            10a80        0     1                 .L0 
           10ac0            10ac0        0     1                 .L0 
           10af0            10af0        0     1                 .L0 
           10b20            10b20        0     1                 .L0 
           10b50            10b50        0     1                 .L0 
           10b80            10b80        0     1                 .L0 
           10bb0            10bb0        0     1                 .L0 
           10c00            10c00        0     1                 .L0 
           10c30            10c30        0     1                 .L0 
           10c60            10c60        0     1                 .L0 
           10cb0            10cb0        0     1                 .L0 
           10ce0            10ce0        0     1                 .L0 
           10d10            10d10        0     1                 .L0 
           10d50            10d50        0     1                 .L0 
           10d90            10d90        0     1                 .L0 
           10dc0            10dc0        0     1                 .L0 
           10e30            10e30        0     1                 .L0 
           10e60            10e60        0     1                 .L0 
           10ec0            10ec0        0     1                 .L0 
           10f00            10f00        0     1                 .L0 
           10f40            10f40        0     1                 .L0 
           10f70            10f70        0     1                 .L0 
           10fc0            10fc0        0     1                 .L0 
           11000            11000        0     1                 .L0 
           11040            11040        0     1                 .L0 
           11070            11070        0     1                 .L0 
           110c0            110c0        0     1                 .L0 
           11110            11110        0     1                 .L0 
           11150            11150        0     1                 .L0 
           11180            11180        0     1                 .L0 
           111b0            111b0        0     1                 .L0 
           11200            11200        0     1                 .L0 
           11230            11230        0     1                 .L0 
           11260            11260        0     1                 .L0 
           11290            11290        0     1                 .L0 
           112d0            112d0        0     1                 .L0 
           11300            11300        0     1                 .L0 
           11340            11340        0     1                 .L0 
           11380            11380        0     1                 .L0 
           113b0            113b0        0     1                 .L0 
           113e0            113e0        0     1                 .L0 
           11410            11410        0     1                 .L0 
           11450            11450        0     1                 .L0 
           11480            11480        0     1                 .L0 
           114c0            114c0        0     1                 .L0 
           114f0            114f0        0     1                 .L0 
           11520            11520        0     1                 .L0 
           11560            11560        0     1                 .L0 
           115a0            115a0        0     1                 .L0 
           115e0            115e0        0     1                 .L0 
           11610            11610        0     1                 .L0 
           11640            11640        0     1                 .L0 
           11680            11680        0     1                 .L0 
           116c0            116c0        0     1                 .L0 
           116f0            116f0        0     1                 .L0 
           11730            11730        0     1                 .L0 
           11760            11760        0     1                 .L0 
           11790            11790        0     1                 .L0 
           11800            11800        0     1                 .L0 
           11870            11870        0     1                 .L0 
           118e0            118e0        0     1                 .L0 
           11940            11940        0     1                 .L0 
           11980            11980        0     1                 .L0 
           119b0            119b0        0     1                 .L0 
           11a20            11a20        0     1                 .L0 
           11a80            11a80        0     1                 .L0 
           11af0            11af0        0     1                 .L0 
           11b50            11b50        0     1                 .L0 
           11b90            11b90        0     1                 .L0 
           11bc0            11bc0        0     1                 .L0 
           11c30            11c30        0     1                 .L0 
           11ca0            11ca0        0     1                 .L0 
           11d20            11d20        0     1                 .L0 
           11d80            11d80        0     1                 .L0 
           11dc0            11dc0        0     1                 .L0 
           11df0            11df0        0     1                 .L0 
           11e60            11e60        0     1                 .L0 
           11ea0            11ea0        0     1                 .L0 
           11f10            11f10        0     1                 .L0 
           11f70            11f70        0     1                 .L0 
           11fb0            11fb0        0     1                 .L0 
           11fe0            11fe0        0     1                 .L0 
           12050            12050        0     1                 .L0 
           120b0            120b0        0     1                 .L0 
           12120            12120        0     1                 .L0 
           12170            12170        0     1                 .L0 
           121b0            121b0        0     1                 .L0 
           12270            12270        0     1                 .L0 
           12330            12330        0     1                 .L0 
           123f0            123f0        0     1                 .L0 
           12420            12420        0     1                 .L0 
           12450            12450        0     1                 .L0 
           12510            12510        0     1                 .L0 
           125d0            125d0        0     1                 .L0 
           12690            12690        0     1                 .L0 
           126c0            126c0        0     1                 .L0 
           126f0            126f0        0     1                 .L0 
           12720            12720        0     1                 .L0 
           12750            12750        0     1                 .L0 
           12780            12780        0     1                 .L0 
           127b0            127b0        0     1                 .L0 
           127e0            127e0        0     1                 .L0 
           12810            12810        0     1                 .L0 
           12840            12840        0     1                 .L0 
           12880            12880        0     1                 .L0 
           128b0            128b0        0     1                 .L0 
           128e0            128e0        0     1                 .L0 
           12920            12920        0     1                 .L0 
           12950            12950        0     1                 .L0 
           12980            12980        0     1                 .L0 
           129b0            129b0        0     1                 .L0 
           129e0            129e0        0     1                 .L0 
           12a10            12a10        0     1                 .L0 
           12a40            12a40        0     1                 .L0 
           12a70            12a70        0     1                 .L0 
           12aa0            12aa0        0     1                 .L0 
           12ad0            12ad0        0     1                 .L0 
           12b00            12b00        0     1                 .L0 
           12b30            12b30        0     1                 .L0 
           12b60            12b60        0     1                 .L0 
           12b90            12b90        0     1                 .L0 
           12bc0            12bc0        0     1                 .L0 
           12bf0            12bf0        0     1                 .L0 
           12c20            12c20        0     1                 .L0 
           12c50            12c50        0     1                 .L0 
           12c80            12c80        0     1                 .L0 
           12cb0            12cb0        0     1                 .L0 
           12ce0            12ce0        0     1                 .L0 
           12d20            12d20        0     1                 .L0 
           12d50            12d50        0     1                 .L0 
           12d80            12d80        0     1                 .L0 
           12db0            12db0        0     1                 .L0 
           12df0            12df0        0     1                 .L0 
           12e30            12e30        0     1                 .L0 
           12e70            12e70        0     1                 .L0 
           12eb0            12eb0        0     1                 .L0 
           12ee0            12ee0        0     1                 .L0 
           12f10            12f10        0     1                 .L0 
           12f40            12f40        0     1                 .L0 
           12f70            12f70        0     1                 .L0 
           12fa0            12fa0        0     1                 .L0 
           12fd0            12fd0        0     1                 .L0 
           13000            13000        0     1                 .L0 
           13030            13030        0     1                 .L0 
           13060            13060        0     1                 .L0 
           13090            13090        0     1                 .L0 
           130c0            130c0        0     1                 .L0 
           130f0            130f0        0     1                 .L0 
           13130            13130        0     1                 .L0 
           13160            13160        0     1                 .L0 
           131b0            131b0        0     1                 .L0 
           13210            13210        0     1                 .L0 
           13260            13260        0     1                 .L0 
           13290            13290        0     1                 .L0 
           132e0            132e0        0     1                 .L0 
           13310            13310        0     1                 .L0 
           13340            13340        0     1                 .L0 
           13370            13370        0     1                 .L0 
           133b0            133b0        0     1                 .L0 
           133e0            133e0        0     1                 .L0 
           13410            13410        0     1                 .L0 
           13450            13450        0     1                 .L0 
           13480            13480        0     1                 .L0 
           134d0            134d0        0     1                 .L0 
           13530            13530        0     1                 .L0 
           13580            13580        0     1                 .L0 
           135b0            135b0        0     1                 .L0 
           135e0            135e0        0     1                 .L0 
           13610            13610        0     1                 .L0 
           13640            13640        0     1                 .L0 
           13670            13670        0     1                 .L0 
           136c0            136c0        0     1                 .L0 
           136f0            136f0        0     1                 .L0 
           13740            13740        0     1                 .L0 
           137a0            137a0        0     1                 .L0 
           137f0            137f0        0     1                 .L0 
           13820            13820        0     1                 .L0 
           13850            13850        0     1                 .L0 
           13890            13890        0     1                 .L0 
           138c0            138c0        0     1                 .L0 
           138f0            138f0        0     1                 .L0 
           13930            13930        0     1                 .L0 
           13960            13960        0     1                 .L0 
           13990            13990        0     1                 .L0 
           139d0            139d0        0     1                 .L0 
           13a00            13a00        0     1                 .L0 
           13a30            13a30        0     1                 .L0 
           13a70            13a70        0     1                 .L0 
           13aa0            13aa0        0     1                 .L0 
           13ad0            13ad0        0     1                 .L0 
           13b00            13b00        0     1                 .L0 
           13b50            13b50        0     1                 .L0 
           13b80            13b80        0     1                 .L0 
           13bd0            13bd0        0     1                 .L0 
           13c00            13c00        0     1                 .L0 
           13c30            13c30        0     1                 .L0 
           13c60            13c60        0     1                 .L0 
           13c90            13c90        0     1                 .L0 
           13ce0            13ce0        0     1                 .L0 
           13d10            13d10        0     1                 .L0 
           13d40            13d40        0     1                 .L0 
           13d70            13d70        0     1                 .L0 
           13da0            13da0        0     1                 .L0 
           13de0            13de0        0     1                 .L0 
           13e10            13e10        0     1                 .L0 
           13e40            13e40        0     1                 .L0 
           13e70            13e70        0     1                 .L0 
           13ec0            13ec0        0     1                 .L0 
           13ef0            13ef0        0     1                 .L0 
           13f20            13f20        0     1                 .L0 
           13f50            13f50        0     1                 .L0 
           13fa0            13fa0        0     1                 .L0 
           13fd0            13fd0        0     1                 .L0 
           14000            14000        0     1                 .L0 
           14040            14040        0     1                 .L0 
           14070            14070        0     1                 .L0 
           140c0            140c0        0     1                 .L0 
           14120            14120        0     1                 .L0 
           14170            14170        0     1                 .L0 
           141a0            141a0        0     1                 .L0 
           141d0            141d0        0     1                 .L0 
           14210            14210        0     1                 .L0 
           14240            14240        0     1                 .L0 
           14270            14270        0     1                 .L0 
           142c0            142c0        0     1                 .L0 
           142f0            142f0        0     1                 .L0 
           14320            14320        0     1                 .L0 
           14360            14360        0     1                 .L0 
           14390            14390        0     1                 .L0 
           143c0            143c0        0     1                 .L0 
           14400            14400        0     1                 .L0 
           14430            14430        0     1                 .L0 
           14460            14460        0     1                 .L0 
           14490            14490        0     1                 .L0 
           144e0            144e0        0     1                 .L0 
           14510            14510        0     1                 .L0 
           14540            14540        0     1                 .L0 
           14570            14570        0     1                 .L0 
           145a0            145a0        0     1                 .L0 
           145d0            145d0        0     1                 .L0 
           14620            14620        0     1                 .L0 
           14650            14650        0     1                 .L0 
           146a0            146a0        0     1                 .L0 
           146d0            146d0        0     1                 .L0 
           14700            14700        0     1                 .L0 
           14730            14730        0     1                 .L0 
           14760            14760        0     1                 .L0 
           147a0            147a0        0     1                 .L0 
           147e0            147e0        0     1                 .L0 
           14830            14830        0     1                 .L0 
           14880            14880        0     1                 .L0 
           148b0            148b0        0     1                 .L0 
           148e0            148e0        0     1                 .L0 
           14910            14910        0     1                 .L0 
           14940            14940        0     1                 .L0 
           14970            14970        0     1                 .L0 
           149a0            149a0        0     1                 .L0 
           149e0            149e0        0     1                 .L0 
           14a10            14a10        0     1                 .L0 
           14a40            14a40        0     1                 .L0 
           14a70            14a70        0     1                 .L0 
           14aa0            14aa0        0     1                 .L0 
           14ad0            14ad0        0     1                 .L0 
           14b00            14b00        0     1                 .L0 
           14b40            14b40        0     1                 .L0 
           14b70            14b70        0     1                 .L0 
           16ca0            16ca0       30     1         C:\Users\Magnus\.rustup\toolchains\nightly-x86_64-pc-windows-msvc\lib\rustlib\riscv64gc-unknown-none-elf\lib\libcompiler_builtins-68e6dafd27578d1b.rlib(compiler_builtins-68e6dafd27578d1b.compiler_builtins.28f9de005c366824-cgu.158.rcgu.o):(.debug_ranges)
           16ca0            16ca0        0     1                 .L0 
           16ca0            16ca0        0     1                 $d
           16cd0            16cd0       30     1         C:\Users\Magnus\.rustup\toolchains\nightly-x86_64-pc-windows-msvc\lib\rustlib\riscv64gc-unknown-none-elf\lib\libcompiler_builtins-68e6dafd27578d1b.rlib(compiler_builtins-68e6dafd27578d1b.compiler_builtins.28f9de005c366824-cgu.207.rcgu.o):(.debug_ranges)
           16cd0            16cd0        0     1                 .L0 
           16cd0            16cd0        0     1                 $d
           16d00            16d00      1a0     1         C:\Users\Magnus\.rustup\toolchains\nightly-x86_64-pc-windows-msvc\lib\rustlib\riscv64gc-unknown-none-elf\lib\libcompiler_builtins-68e6dafd27578d1b.rlib(compiler_builtins-68e6dafd27578d1b.compiler_builtins.28f9de005c366824-cgu.223.rcgu.o):(.debug_ranges)
           16d00            16d00        0     1                 .L0 
           16d00            16d00        0     1                 $d
           16d40            16d40        0     1                 .L0 
           16d80            16d80        0     1                 .L0 
           16dc0            16dc0        0     1                 .L0 
           16e00            16e00        0     1                 .L0 
           16e40            16e40        0     1                 .L0 
           16e70            16e70        0     1                 .L0 
           16ea0            16ea0      300     1         C:\Users\Magnus\.rustup\toolchains\nightly-x86_64-pc-windows-msvc\lib\rustlib\riscv64gc-unknown-none-elf\lib\libcompiler_builtins-68e6dafd27578d1b.rlib(compiler_builtins-68e6dafd27578d1b.compiler_builtins.28f9de005c366824-cgu.013.rcgu.o):(.debug_ranges)
           16ea0            16ea0        0     1                 .L0 
           16ea0            16ea0        0     1                 $d
           16ed0            16ed0        0     1                 .L0 
           16f00            16f00        0     1                 .L0 
           16f40            16f40        0     1                 .L0 
           16f70            16f70        0     1                 .L0 
           16fa0            16fa0        0     1                 .L0 
           16fd0            16fd0        0     1                 .L0 
           17000            17000        0     1                 .L0 
           17030            17030        0     1                 .L0 
           17060            17060        0     1                 .L0 
           170a0            170a0        0     1                 .L0 
           170d0            170d0        0     1                 .L0 
           17100            17100        0     1                 .L0 
           17130            17130        0     1                 .L0 
           17160            17160        0     1                 .L0 
           171a0            171a0      9f0     1         C:\Users\Magnus\.rustup\toolchains\nightly-x86_64-pc-windows-msvc\lib\rustlib\riscv64gc-unknown-none-elf\lib\libcompiler_builtins-68e6dafd27578d1b.rlib(compiler_builtins-68e6dafd27578d1b.compiler_builtins.28f9de005c366824-cgu.008.rcgu.o):(.debug_ranges)
           171a0            171a0        0     1                 .L0 
           171a0            171a0        0     1                 $d
           171d0            171d0        0     1                 .L0 
           17200            17200        0     1                 .L0 
           17230            17230        0     1                 .L0 
           17270            17270        0     1                 .L0 
           172b0            172b0        0     1                 .L0 
           172e0            172e0        0     1                 .L0 
           17310            17310        0     1                 .L0 
           17340            17340        0     1                 .L0 
           17370            17370        0     1                 .L0 
           173a0            173a0        0     1                 .L0 
           173d0            173d0        0     1                 .L0 
           17400            17400        0     1                 .L0 
           17430            17430        0     1                 .L0 
           17460            17460        0     1                 .L0 
           17490            17490        0     1                 .L0 
           174c0            174c0        0     1                 .L0 
           174f0            174f0        0     1                 .L0 
           17550            17550        0     1                 .L0 
           17580            17580        0     1                 .L0 
           175c0            175c0        0     1                 .L0 
           175f0            175f0        0     1                 .L0 
           17620            17620        0     1                 .L0 
           17650            17650        0     1                 .L0 
           17680            17680        0     1                 .L0 
           176c0            176c0        0     1                 .L0 
           17700            17700        0     1                 .L0 
           17730            17730        0     1                 .L0 
           17760            17760        0     1                 .L0 
           177a0            177a0        0     1                 .L0 
           177e0            177e0        0     1                 .L0 
           17840            17840        0     1                 .L0 
           17870            17870        0     1                 .L0 
           178b0            178b0        0     1                 .L0 
           178f0            178f0        0     1                 .L0 
           17930            17930        0     1                 .L0 
           17960            17960        0     1                 .L0 
           17990            17990        0     1                 .L0 
           179c0            179c0        0     1                 .L0 
           179f0            179f0        0     1                 .L0 
           17a20            17a20        0     1                 .L0 
           17a50            17a50        0     1                 .L0 
           17a80            17a80        0     1                 .L0 
           17ac0            17ac0        0     1                 .L0 
           17b00            17b00        0     1                 .L0 
           17b30            17b30        0     1                 .L0 
           17b90            17b90       90     1         C:\Users\Magnus\.rustup\toolchains\nightly-x86_64-pc-windows-msvc\lib\rustlib\riscv64gc-unknown-none-elf\lib\libcompiler_builtins-68e6dafd27578d1b.rlib(compiler_builtins-68e6dafd27578d1b.compiler_builtins.28f9de005c366824-cgu.343.rcgu.o):(.debug_ranges)
           17b90            17b90        0     1                 .L0 
           17b90            17b90        0     1                 $d
           17bc0            17bc0        0     1                 .L0 
           17bf0            17bf0        0     1                 .L0 
               0                0    3f1c4     1 .debug_str
               0                0    3f1c4     1         <internal>:(.debug_str)
               0                0       a1     1 .comment
               0                0       a1     1         <internal>:(.comment)
               0                0       74     1 .riscv.attributes
               0                0       74     1         <internal>:(.riscv.attributes)
               0                0      210     8 .debug_frame
               0                0      210     8         D:\rust\bogokernel\target\riscv64gc-unknown-none-elf\debug\deps\kernel-6d55ed35400b9dc4.8bzhb9fu7en3rtrx7zpckaf8v.10m4h80.rcgu.o:(.debug_frame)
               0                0        0     1                 .L0 
               0                0        0     1                 $d
               0                0    1f9b0     1 .debug_line
               0                0      f44     1         D:\rust\bogokernel\target\riscv64gc-unknown-none-elf\debug\deps\kernel-6d55ed35400b9dc4.8bzhb9fu7en3rtrx7zpckaf8v.10m4h80.rcgu.o:(.debug_line)
               0                0        0     1                 .Lline_table_start0
               0                0        0     1                 $d
             f44              f44    1c8cd     1         C:\Users\Magnus\.rustup\toolchains\nightly-x86_64-pc-windows-msvc\lib\rustlib\riscv64gc-unknown-none-elf\lib\libcore-6873ca3f970f9a34.rlib(core-6873ca3f970f9a34.core.d22cbba136389eb0-cgu.0.rcgu.o):(.debug_line)
             f44              f44        0     1                 .Lline_table_start0
             f44              f44        0     1                 $d
           1d811            1d811      410     1         C:\Users\Magnus\.rustup\toolchains\nightly-x86_64-pc-windows-msvc\lib\rustlib\riscv64gc-unknown-none-elf\lib\libcompiler_builtins-68e6dafd27578d1b.rlib(compiler_builtins-68e6dafd27578d1b.compiler_builtins.28f9de005c366824-cgu.158.rcgu.o):(.debug_line)
           1d811            1d811        0     1                 .Lline_table_start0
           1d811            1d811        0     1                 $d
           1daef            1daef        0     1                 .Lline_table_start1
           1dc21            1dc21      18a     1         C:\Users\Magnus\.rustup\toolchains\nightly-x86_64-pc-windows-msvc\lib\rustlib\riscv64gc-unknown-none-elf\lib\libcompiler_builtins-68e6dafd27578d1b.rlib(compiler_builtins-68e6dafd27578d1b.compiler_builtins.28f9de005c366824-cgu.207.rcgu.o):(.debug_line)
           1dc21            1dc21        0     1                 .Lline_table_start0
           1dc21            1dc21        0     1                 $d
           1dd10            1dd10        0     1                 .Lline_table_start1
           1ddab            1ddab      4a4     1         C:\Users\Magnus\.rustup\toolchains\nightly-x86_64-pc-windows-msvc\lib\rustlib\riscv64gc-unknown-none-elf\lib\libcompiler_builtins-68e6dafd27578d1b.rlib(compiler_builtins-68e6dafd27578d1b.compiler_builtins.28f9de005c366824-cgu.223.rcgu.o):(.debug_line)
           1ddab            1ddab        0     1                 .Lline_table_start0
           1ddab            1ddab        0     1                 $d
           1e05b            1e05b        0     1                 .Lline_table_start1
           1e1a5            1e1a5        0     1                 .Lline_table_start2
           1e24f            1e24f      11c     1         C:\Users\Magnus\.rustup\toolchains\nightly-x86_64-pc-windows-msvc\lib\rustlib\riscv64gc-unknown-none-elf\lib\libcompiler_builtins-68e6dafd27578d1b.rlib(compiler_builtins-68e6dafd27578d1b.compiler_builtins.28f9de005c366824-cgu.247.rcgu.o):(.debug_line)
           1e24f            1e24f        0     1                 .Lline_table_start0
           1e24f            1e24f        0     1                 $d
           1e310            1e310        0     1                 .Lline_table_start1
           1e36b            1e36b      7d7     1         C:\Users\Magnus\.rustup\toolchains\nightly-x86_64-pc-windows-msvc\lib\rustlib\riscv64gc-unknown-none-elf\lib\libcompiler_builtins-68e6dafd27578d1b.rlib(compiler_builtins-68e6dafd27578d1b.compiler_builtins.28f9de005c366824-cgu.013.rcgu.o):(.debug_line)
           1e36b            1e36b        0     1                 .Lline_table_start0
           1e36b            1e36b        0     1                 $d
           1eb42            1eb42       72     1         C:\Users\Magnus\.rustup\toolchains\nightly-x86_64-pc-windows-msvc\lib\rustlib\riscv64gc-unknown-none-elf\lib\libcompiler_builtins-68e6dafd27578d1b.rlib(compiler_builtins-68e6dafd27578d1b.compiler_builtins.28f9de005c366824-cgu.323.rcgu.o):(.debug_line)
           1eb42            1eb42        0     1                 .Lline_table_start0
           1eb42            1eb42        0     1                 $d
           1ebb4            1ebb4      b02     1         C:\Users\Magnus\.rustup\toolchains\nightly-x86_64-pc-windows-msvc\lib\rustlib\riscv64gc-unknown-none-elf\lib\libcompiler_builtins-68e6dafd27578d1b.rlib(compiler_builtins-68e6dafd27578d1b.compiler_builtins.28f9de005c366824-cgu.008.rcgu.o):(.debug_line)
           1ebb4            1ebb4        0     1                 .Lline_table_start0
           1ebb4            1ebb4        0     1                 $d
           1f6b6            1f6b6      2fa     1         C:\Users\Magnus\.rustup\toolchains\nightly-x86_64-pc-windows-msvc\lib\rustlib\riscv64gc-unknown-none-elf\lib\libcompiler_builtins-68e6dafd27578d1b.rlib(compiler_builtins-68e6dafd27578d1b.compiler_builtins.28f9de005c366824-cgu.343.rcgu.o):(.debug_line)
           1f6b6            1f6b6        0     1                 .Lline_table_start0
           1f6b6            1f6b6        0     1                 $d
           1f8a5            1f8a5        0     1                 .Lline_table_start1
               0                0    11010     8 .symtab
               0                0    11010     8         <internal>:(.symtab)
               0                0       b9     1 .shstrtab
               0                0       b9     1         <internal>:(.shstrtab)
               0                0     4df5     1 .strtab
               0                0     4df5     1         <internal>:(.strtab)
